
arch/arm/boot/compressed/vmlinux:     file format elf32-littlearm


Disassembly of section .text:

43e00000 <__aeabi_llsl+0x43dfa5cc>:
43e00000:	e1a00000 	nop			; (mov r0, r0)
43e00004:	e1a00000 	nop			; (mov r0, r0)
43e00008:	e1a00000 	nop			; (mov r0, r0)
43e0000c:	e1a00000 	nop			; (mov r0, r0)
43e00010:	e1a00000 	nop			; (mov r0, r0)
43e00014:	e1a00000 	nop			; (mov r0, r0)
43e00018:	e1a00000 	nop			; (mov r0, r0)
43e0001c:	e1a00000 	nop			; (mov r0, r0)
43e00020:	ea000002 	b	43e00030 <_end+0x43b7fba4>
43e00024:	016f2818 	cmneq	pc, r8, lsl r8	; <UNPREDICTABLE>
43e00028:	00000000 	andeq	r0, r0, r0
43e0002c:	00280468 	eoreq	r0, r8, r8, ror #8
43e00030:	e10f9000 	mrs	r9, CPSR
43e00034:	eb000e11 	bl	43e03880 <_end+0x43b833f4>
43e00038:	e1a07001 	mov	r7, r1
43e0003c:	e1a08002 	mov	r8, r2
43e00040:	e10f2000 	mrs	r2, CPSR
43e00044:	e3120003 	tst	r2, #3
43e00048:	1a000001 	bne	43e00054 <_end+0x43b7fbc8>
43e0004c:	e3a00017 	mov	r0, #23
43e00050:	ef123456 	svc	0x00123456
43e00054:	e10f0000 	mrs	r0, CPSR
43e00058:	e220001a 	eor	r0, r0, #26
43e0005c:	e310001f 	tst	r0, #31
43e00060:	e3c0001f 	bic	r0, r0, #31
43e00064:	e38000d3 	orr	r0, r0, #211	; 0xd3
43e00068:	1a000004 	bne	43e00080 <_end+0x43b7fbf4>
43e0006c:	e3800c01 	orr	r0, r0, #256	; 0x100
43e00070:	e28fe00c 	add	lr, pc, #12
43e00074:	e16ff000 	msr	SPSR_fsxc, r0
43e00078:	e12ef30e 	msr	ELR_hyp, lr
43e0007c:	e160006e 	eret
43e00080:	e121f000 	msr	CPSR_c, r0
43e00084:	e16ff009 	msr	SPSR_fsxc, r9
	...
43e000a0:	e1a0400f 	mov	r4, pc
43e000a4:	e204433e 	and	r4, r4, #-134217728	; 0xf8000000
43e000a8:	e2844902 	add	r4, r4, #32768	; 0x8000
43e000ac:	eb00008b 	bl	43e002e0 <_end+0x43b7fe54>
43e000b0:	e28f0f7d 	add	r0, pc, #500	; 0x1f4
43e000b4:	e8901c4e 	ldm	r0, {r1, r2, r3, r6, sl, fp, ip}
43e000b8:	e590d01c 	ldr	sp, [r0, #28]
43e000bc:	e0400001 	sub	r0, r0, r1
43e000c0:	e0866000 	add	r6, r6, r0
43e000c4:	e08aa000 	add	sl, sl, r0
43e000c8:	e5da9000 	ldrb	r9, [sl]
43e000cc:	e5dae001 	ldrb	lr, [sl, #1]
43e000d0:	e189940e 	orr	r9, r9, lr, lsl #8
43e000d4:	e5dae002 	ldrb	lr, [sl, #2]
43e000d8:	e5daa003 	ldrb	sl, [sl, #3]
43e000dc:	e189980e 	orr	r9, r9, lr, lsl #16
43e000e0:	e1899c0a 	orr	r9, r9, sl, lsl #24
43e000e4:	e08dd000 	add	sp, sp, r0
43e000e8:	e28da801 	add	sl, sp, #65536	; 0x10000
43e000ec:	e3a05000 	mov	r5, #0
43e000f0:	e596e000 	ldr	lr, [r6]
43e000f4:	e59f1810 	ldr	r1, [pc, #2064]	; 43e0090c <_end+0x43b80480>
43e000f8:	e15e0001 	cmp	lr, r1
43e000fc:	1a00001d 	bne	43e00178 <_end+0x43b7fcec>
43e00100:	e28dd801 	add	sp, sp, #65536	; 0x10000
43e00104:	e92d500f 	push	{r0, r1, r2, r3, ip, lr}
43e00108:	e1a00008 	mov	r0, r8
43e0010c:	e1a01006 	mov	r1, r6
43e00110:	e04d2006 	sub	r2, sp, r6
43e00114:	eb001506 	bl	43e05534 <_end+0x43b850a8>
43e00118:	e3500001 	cmp	r0, #1
43e0011c:	e2440902 	sub	r0, r4, #32768	; 0x8000
43e00120:	e2800c01 	add	r0, r0, #256	; 0x100
43e00124:	e1a01006 	mov	r1, r6
43e00128:	e04d2006 	sub	r2, sp, r6
43e0012c:	0b001500 	bleq	43e05534 <_end+0x43b850a8>
43e00130:	e8bd500f 	pop	{r0, r1, r2, r3, ip, lr}
43e00134:	e24dd801 	sub	sp, sp, #65536	; 0x10000
43e00138:	e1a08006 	mov	r8, r6
43e0013c:	e59f57cc 	ldr	r5, [pc, #1996]	; 43e00910 <_end+0x43b80484>
43e00140:	e28f10b8 	add	r1, pc, #184	; 0xb8
43e00144:	e0461001 	sub	r1, r6, r1
43e00148:	e0551001 	subs	r1, r5, r1
43e0014c:	80899001 	addhi	r9, r9, r1
43e00150:	e5965004 	ldr	r5, [r6, #4]
43e00154:	e0251865 	eor	r1, r5, r5, ror #16
43e00158:	e3c118ff 	bic	r1, r1, #16711680	; 0xff0000
43e0015c:	e1a05465 	ror	r5, r5, #8
43e00160:	e0255421 	eor	r5, r5, r1, lsr #8
43e00164:	e2855007 	add	r5, r5, #7
43e00168:	e3c55007 	bic	r5, r5, #7
43e0016c:	e0866005 	add	r6, r6, r5
43e00170:	e08aa005 	add	sl, sl, r5
43e00174:	e08dd005 	add	sp, sp, r5
43e00178:	e28aa901 	add	sl, sl, #16384	; 0x4000
43e0017c:	e154000a 	cmp	r4, sl
43e00180:	2a00001e 	bcs	43e00200 <_end+0x43b7fd74>
43e00184:	e084a009 	add	sl, r4, r9
43e00188:	e28f9070 	add	r9, pc, #112	; 0x70
43e0018c:	e15a0009 	cmp	sl, r9
43e00190:	9a00001a 	bls	43e00200 <_end+0x43b7fd74>
43e00194:	e28aac09 	add	sl, sl, #2304	; 0x900
43e00198:	e3caa0ff 	bic	sl, sl, #255	; 0xff
43e0019c:	e24f50f4 	sub	r5, pc, #244	; 0xf4
43e001a0:	e3c5501f 	bic	r5, r5, #31
43e001a4:	e14f0000 	mrs	r0, SPSR
43e001a8:	e200001f 	and	r0, r0, #31
43e001ac:	e350001a 	cmp	r0, #26
43e001b0:	1a000003 	bne	43e001c4 <_end+0x43b7fd38>
43e001b4:	eb000dc6 	bl	43e038d4 <_end+0x43b83448>
43e001b8:	e0400005 	sub	r0, r0, r5
43e001bc:	e080000a 	add	r0, r0, sl
43e001c0:	eb000dc4 	bl	43e038d8 <_end+0x43b8344c>
43e001c4:	e0469005 	sub	r9, r6, r5
43e001c8:	e289901f 	add	r9, r9, #31
43e001cc:	e3c9901f 	bic	r9, r9, #31
43e001d0:	e0896005 	add	r6, r9, r5
43e001d4:	e089900a 	add	r9, r9, sl
43e001d8:	e9365c0f 	ldmdb	r6!, {r0, r1, r2, r3, sl, fp, ip, lr}
43e001dc:	e1560005 	cmp	r6, r5
43e001e0:	e9295c0f 	stmdb	r9!, {r0, r1, r2, r3, sl, fp, ip, lr}
43e001e4:	8afffffb 	bhi	43e001d8 <_end+0x43b7fd4c>
43e001e8:	e0496006 	sub	r6, r9, r6
43e001ec:	e08dd006 	add	sp, sp, r6
43e001f0:	eb00015a 	bl	43e00760 <_end+0x43b802d4>
43e001f4:	e24f0f53 	sub	r0, pc, #332	; 0x14c
43e001f8:	e0800006 	add	r0, r0, r6
43e001fc:	e1a0f000 	mov	pc, r0
43e00200:	e1901005 	orrs	r1, r0, r5
43e00204:	0a00000d 	beq	43e00240 <_end+0x43b7fdb4>
43e00208:	e08bb000 	add	fp, fp, r0
43e0020c:	e08cc000 	add	ip, ip, r0
43e00210:	e0822000 	add	r2, r2, r0
43e00214:	e0833000 	add	r3, r3, r0
43e00218:	e59b1000 	ldr	r1, [fp]
43e0021c:	e0811000 	add	r1, r1, r0
43e00220:	e1510002 	cmp	r1, r2
43e00224:	21530001 	cmpcs	r3, r1
43e00228:	80811005 	addhi	r1, r1, r5
43e0022c:	e48b1004 	str	r1, [fp], #4
43e00230:	e15b000c 	cmp	fp, ip
43e00234:	3afffff7 	bcc	43e00218 <_end+0x43b7fd8c>
43e00238:	e0822005 	add	r2, r2, r5
43e0023c:	e0833005 	add	r3, r3, r5
43e00240:	e3a00000 	mov	r0, #0
43e00244:	e4820004 	str	r0, [r2], #4
43e00248:	e4820004 	str	r0, [r2], #4
43e0024c:	e4820004 	str	r0, [r2], #4
43e00250:	e4820004 	str	r0, [r2], #4
43e00254:	e1520003 	cmp	r2, r3
43e00258:	3afffff9 	bcc	43e00244 <_end+0x43b7fdb8>
43e0025c:	e1a00004 	mov	r0, r4
43e00260:	e1a0100d 	mov	r1, sp
43e00264:	e28d2801 	add	r2, sp, #65536	; 0x10000
43e00268:	e1a03007 	mov	r3, r7
43e0026c:	eb0001cf 	bl	43e009b0 <_end+0x43b80524>
43e00270:	eb00013a 	bl	43e00760 <_end+0x43b802d4>
43e00274:	eb000111 	bl	43e006c0 <_end+0x43b80234>
43e00278:	e1a01007 	mov	r1, r7
43e0027c:	e1a02008 	mov	r2, r8
43e00280:	e14f0000 	mrs	r0, SPSR
43e00284:	e200001f 	and	r0, r0, #31
43e00288:	e350001a 	cmp	r0, #26
43e0028c:	1a0001ab 	bne	43e00940 <_end+0x43b804b4>
43e00290:	e28fc010 	add	ip, pc, #16
43e00294:	e59c0000 	ldr	r0, [ip]
43e00298:	e080000c 	add	r0, r0, ip
43e0029c:	eb000d8d 	bl	43e038d8 <_end+0x43b8344c>
43e002a0:	e1400070 	hvc	0
43e002a4:	eafffffe 	b	43e002a4 <_end+0x43b7fe18>
43e002a8:	00000678 	andeq	r0, r0, r8, ror r6
43e002ac:	000002ac 	andeq	r0, r0, ip, lsr #5
43e002b0:	00280468 	eoreq	r0, r8, r8, ror #8
43e002b4:	0028048c 	eoreq	r0, r8, ip, lsl #9
43e002b8:	00280468 	eoreq	r0, r8, r8, ror #8
43e002bc:	00280420 	eoreq	r0, r8, r0, lsr #8
43e002c0:	00280430 	eoreq	r0, r8, r0, lsr r4
43e002c4:	00280460 	eoreq	r0, r8, r0, ror #8
43e002c8:	00281490 	mlaeq	r8, r0, r4, r1
43e002cc:	e320f000 	nop	{0}
43e002d0:	e320f000 	nop	{0}
43e002d4:	e320f000 	nop	{0}
43e002d8:	e320f000 	nop	{0}
43e002dc:	e320f000 	nop	{0}
43e002e0:	e3a03008 	mov	r3, #8
43e002e4:	ea000088 	b	43e0050c <_end+0x43b80080>
43e002e8:	e3a0003f 	mov	r0, #63	; 0x3f
43e002ec:	ee060f17 	mcr	15, 0, r0, cr6, cr7, {0}
43e002f0:	ee060f37 	mcr	15, 0, r0, cr6, cr7, {1}
43e002f4:	e3a00080 	mov	r0, #128	; 0x80
43e002f8:	ee020f10 	mcr	15, 0, r0, cr2, cr0, {0}
43e002fc:	ee020f30 	mcr	15, 0, r0, cr2, cr0, {1}
43e00300:	ee030f10 	mcr	15, 0, r0, cr3, cr0, {0}
43e00304:	e3a00903 	mov	r0, #49152	; 0xc000
43e00308:	ee050f30 	mcr	15, 0, r0, cr5, cr0, {1}
43e0030c:	ee050f10 	mcr	15, 0, r0, cr5, cr0, {0}
43e00310:	e3a00000 	mov	r0, #0
43e00314:	ee070f9a 	mcr	15, 0, r0, cr7, cr10, {4}
43e00318:	ee070f15 	mcr	15, 0, r0, cr7, cr5, {0}
43e0031c:	ee070f16 	mcr	15, 0, r0, cr7, cr6, {0}
43e00320:	ee110f10 	mrc	15, 0, r0, cr1, cr0, {0}
43e00324:	e380002d 	orr	r0, r0, #45	; 0x2d
43e00328:	e3800a01 	orr	r0, r0, #4096	; 0x1000
43e0032c:	ee010f10 	mcr	15, 0, r0, cr1, cr0, {0}
43e00330:	e3a00000 	mov	r0, #0
43e00334:	ee070f15 	mcr	15, 0, r0, cr7, cr5, {0}
43e00338:	ee070f16 	mcr	15, 0, r0, cr7, cr6, {0}
43e0033c:	e1a0f00e 	mov	pc, lr
43e00340:	e3a0003f 	mov	r0, #63	; 0x3f
43e00344:	ee060f17 	mcr	15, 0, r0, cr6, cr7, {0}
43e00348:	e3a00080 	mov	r0, #128	; 0x80
43e0034c:	ee020f10 	mcr	15, 0, r0, cr2, cr0, {0}
43e00350:	ee030f10 	mcr	15, 0, r0, cr3, cr0, {0}
43e00354:	e3a00903 	mov	r0, #49152	; 0xc000
43e00358:	ee050f10 	mcr	15, 0, r0, cr5, cr0, {0}
43e0035c:	e3a00000 	mov	r0, #0
43e00360:	ee070f10 	mcr	15, 0, r0, cr7, cr0, {0}
43e00364:	ee110f10 	mrc	15, 0, r0, cr1, cr0, {0}
43e00368:	e380000d 	orr	r0, r0, #13
43e0036c:	e3a00000 	mov	r0, #0
43e00370:	ee010f10 	mcr	15, 0, r0, cr1, cr0, {0}
43e00374:	ee070f10 	mcr	15, 0, r0, cr7, cr0, {0}
43e00378:	e1a0f00e 	mov	pc, lr
43e0037c:	e2443901 	sub	r3, r4, #16384	; 0x4000
43e00380:	e3c330ff 	bic	r3, r3, #255	; 0xff
43e00384:	e3c33c3f 	bic	r3, r3, #16128	; 0x3f00
43e00388:	e1a00003 	mov	r0, r3
43e0038c:	e1a09920 	lsr	r9, r0, #18
43e00390:	e1a09909 	lsl	r9, r9, #18
43e00394:	e289a201 	add	sl, r9, #268435456	; 0x10000000
43e00398:	e3a01012 	mov	r1, #18
43e0039c:	e3811b03 	orr	r1, r1, #3072	; 0xc00
43e003a0:	e2832901 	add	r2, r3, #16384	; 0x4000
43e003a4:	e1510009 	cmp	r1, r9
43e003a8:	215a0001 	cmpcs	sl, r1
43e003ac:	e3c1101c 	bic	r1, r1, #28
43e003b0:	33811010 	orrcc	r1, r1, #16
43e003b4:	21811006 	orrcs	r1, r1, r6
43e003b8:	e4801004 	str	r1, [r0], #4
43e003bc:	e2811601 	add	r1, r1, #1048576	; 0x100000
43e003c0:	e1300002 	teq	r0, r2
43e003c4:	1afffff6 	bne	43e003a4 <_end+0x43b7ff18>
43e003c8:	e3861004 	orr	r1, r6, #4
43e003cc:	e3811b03 	orr	r1, r1, #3072	; 0xc00
43e003d0:	e1a0200f 	mov	r2, pc
43e003d4:	e1a02a22 	lsr	r2, r2, #20
43e003d8:	e1811a02 	orr	r1, r1, r2, lsl #20
43e003dc:	e0830102 	add	r0, r3, r2, lsl #2
43e003e0:	e4801004 	str	r1, [r0], #4
43e003e4:	e2811601 	add	r1, r1, #1048576	; 0x100000
43e003e8:	e5801000 	str	r1, [r0]
43e003ec:	e1a0f00e 	mov	pc, lr
43e003f0:	ee110f10 	mrc	15, 0, r0, cr1, cr0, {0}
43e003f4:	e3c00002 	bic	r0, r0, #2
43e003f8:	e3800501 	orr	r0, r0, #4194304	; 0x400000
43e003fc:	ee010f10 	mcr	15, 0, r0, cr1, cr0, {0}
43e00400:	eaffffff 	b	43e00404 <_end+0x43b7ff78>
43e00404:	e1a0c00e 	mov	ip, lr
43e00408:	e3a0601e 	mov	r6, #30
43e0040c:	ebffffda 	bl	43e0037c <_end+0x43b7fef0>
43e00410:	e3a00000 	mov	r0, #0
43e00414:	ee070f9a 	mcr	15, 0, r0, cr7, cr10, {4}
43e00418:	ee080f17 	mcr	15, 0, r0, cr8, cr7, {0}
43e0041c:	ee110f10 	mrc	15, 0, r0, cr1, cr0, {0}
43e00420:	e3800a05 	orr	r0, r0, #20480	; 0x5000
43e00424:	e3800030 	orr	r0, r0, #48	; 0x30
43e00428:	eb00002c 	bl	43e004e0 <_end+0x43b80054>
43e0042c:	e3a00000 	mov	r0, #0
43e00430:	ee080f17 	mcr	15, 0, r0, cr8, cr7, {0}
43e00434:	e1a0f00c 	mov	pc, ip
43e00438:	e1a0c00e 	mov	ip, lr
43e0043c:	ee10bf91 	mrc	15, 0, fp, cr0, cr1, {4}
43e00440:	e31b000f 	tst	fp, #15
43e00444:	13a0600e 	movne	r6, #14
43e00448:	1bffffcb 	blne	43e0037c <_end+0x43b7fef0>
43e0044c:	e3a00000 	mov	r0, #0
43e00450:	ee070f9a 	mcr	15, 0, r0, cr7, cr10, {4}
43e00454:	e31b000f 	tst	fp, #15
43e00458:	1e080f17 	mcrne	15, 0, r0, cr8, cr7, {0}
43e0045c:	ee110f10 	mrc	15, 0, r0, cr1, cr0, {0}
43e00460:	e3c00201 	bic	r0, r0, #268435456	; 0x10000000
43e00464:	e3800a05 	orr	r0, r0, #20480	; 0x5000
43e00468:	e380003c 	orr	r0, r0, #60	; 0x3c
43e0046c:	e3c00002 	bic	r0, r0, #2
43e00470:	e3800501 	orr	r0, r0, #4194304	; 0x400000
43e00474:	1e126f50 	mrcne	15, 0, r6, cr2, cr0, {2}
43e00478:	13800001 	orrne	r0, r0, #1
43e0047c:	13e01002 	mvnne	r1, #2
43e00480:	e3c66102 	bic	r6, r6, #-2147483648	; 0x80000000
43e00484:	e3c66003 	bic	r6, r6, #3
43e00488:	1e023f10 	mcrne	15, 0, r3, cr2, cr0, {0}
43e0048c:	1e031f10 	mcrne	15, 0, r1, cr3, cr0, {0}
43e00490:	1e026f50 	mcrne	15, 0, r6, cr2, cr0, {2}
43e00494:	ee070f95 	mcr	15, 0, r0, cr7, cr5, {4}
43e00498:	ee010f10 	mcr	15, 0, r0, cr1, cr0, {0}
43e0049c:	ee110f10 	mrc	15, 0, r0, cr1, cr0, {0}
43e004a0:	e3a00000 	mov	r0, #0
43e004a4:	ee070f95 	mcr	15, 0, r0, cr7, cr5, {4}
43e004a8:	e1a0f00c 	mov	pc, ip
43e004ac:	e1a0c00e 	mov	ip, lr
43e004b0:	e3a0601e 	mov	r6, #30
43e004b4:	ebffffb0 	bl	43e0037c <_end+0x43b7fef0>
43e004b8:	e3a00000 	mov	r0, #0
43e004bc:	ee070f17 	mcr	15, 0, r0, cr7, cr7, {0}
43e004c0:	ee070f9a 	mcr	15, 0, r0, cr7, cr10, {4}
43e004c4:	ee080f17 	mcr	15, 0, r0, cr8, cr7, {0}
43e004c8:	ee110f10 	mrc	15, 0, r0, cr1, cr0, {0}
43e004cc:	e3800a01 	orr	r0, r0, #4096	; 0x1000
43e004d0:	eb000002 	bl	43e004e0 <_end+0x43b80054>
43e004d4:	e3a00000 	mov	r0, #0
43e004d8:	ee080f17 	mcr	15, 0, r0, cr8, cr7, {0}
43e004dc:	e1a0f00c 	mov	pc, ip
43e004e0:	e380000d 	orr	r0, r0, #13
43e004e4:	e3e01000 	mvn	r1, #0
43e004e8:	ee023f10 	mcr	15, 0, r3, cr2, cr0, {0}
43e004ec:	ee031f10 	mcr	15, 0, r1, cr3, cr0, {0}
43e004f0:	ea000002 	b	43e00500 <_end+0x43b80074>
43e004f4:	e320f000 	nop	{0}
43e004f8:	e320f000 	nop	{0}
43e004fc:	e320f000 	nop	{0}
43e00500:	ee010f10 	mcr	15, 0, r0, cr1, cr0, {0}
43e00504:	ee110f10 	mrc	15, 0, r0, cr1, cr0, {0}
43e00508:	e04ef020 	sub	pc, lr, r0, lsr #32
43e0050c:	e28fc01c 	add	ip, pc, #28
43e00510:	ee109f10 	mrc	15, 0, r9, cr0, cr0, {0}
43e00514:	e59c1000 	ldr	r1, [ip]
43e00518:	e59c2004 	ldr	r2, [ip, #4]
43e0051c:	e0211009 	eor	r1, r1, r9
43e00520:	e1110002 	tst	r1, r2
43e00524:	008cf003 	addeq	pc, ip, r3
43e00528:	e28cc014 	add	ip, ip, #20
43e0052c:	eafffff8 	b	43e00514 <_end+0x43b80088>
43e00530:	41000000 	mrsmi	r0, (UNDEF: 0)
43e00534:	ff00f000 			; <UNDEFINED> instruction: 0xff00f000
43e00538:	e1a0f00e 	mov	pc, lr
43e0053c:	e1a0f00e 	mov	pc, lr
43e00540:	e1a0f00e 	mov	pc, lr
43e00544:	41007000 	mrsmi	r7, (UNDEF: 0)
43e00548:	fff8fe00 			; <UNDEFINED> instruction: 0xfff8fe00
43e0054c:	e1a0f00e 	mov	pc, lr
43e00550:	e1a0f00e 	mov	pc, lr
43e00554:	e1a0f00e 	mov	pc, lr
43e00558:	41807200 	orrmi	r7, r0, r0, lsl #4
43e0055c:	ffffff00 			; <UNDEFINED> instruction: 0xffffff00
43e00560:	eaffffa7 	b	43e00404 <_end+0x43b7ff78>
43e00564:	ea000065 	b	43e00700 <_end+0x43b80274>
43e00568:	e1a0f00e 	mov	pc, lr
43e0056c:	41007400 	tstmi	r0, r0, lsl #8
43e00570:	ff00ff00 			; <UNDEFINED> instruction: 0xff00ff00
43e00574:	eaffff71 	b	43e00340 <_end+0x43b7feb4>
43e00578:	ea00005a 	b	43e006e8 <_end+0x43b8025c>
43e0057c:	ea0000df 	b	43e00900 <_end+0x43b80474>
43e00580:	41009400 	tstmi	r0, r0, lsl #8
43e00584:	ff00ff00 			; <UNDEFINED> instruction: 0xff00ff00
43e00588:	eaffff56 	b	43e002e8 <_end+0x43b7fe5c>
43e0058c:	ea00004d 	b	43e006c8 <_end+0x43b8023c>
43e00590:	ea000074 	b	43e00768 <_end+0x43b802dc>
43e00594:	41069260 	tstmi	r6, r0, ror #4
43e00598:	ff0ffff0 			; <UNDEFINED> instruction: 0xff0ffff0
43e0059c:	eaffff98 	b	43e00404 <_end+0x43b7ff78>
43e005a0:	ea000056 	b	43e00700 <_end+0x43b80274>
43e005a4:	ea0000b7 	b	43e00888 <_end+0x43b803fc>
43e005a8:	00007000 	andeq	r7, r0, r0
43e005ac:	0000f000 	andeq	pc, r0, r0
43e005b0:	e1a0f00e 	mov	pc, lr
43e005b4:	e1a0f00e 	mov	pc, lr
43e005b8:	e1a0f00e 	mov	pc, lr
43e005bc:	4401a100 	strmi	sl, [r1], #-256	; 0x100
43e005c0:	ffffffe0 			; <UNDEFINED> instruction: 0xffffffe0
43e005c4:	eaffff8e 	b	43e00404 <_end+0x43b7ff78>
43e005c8:	ea00004c 	b	43e00700 <_end+0x43b80274>
43e005cc:	ea0000b2 	b	43e0089c <_end+0x43b80410>
43e005d0:	6901b110 	stmdbvs	r1, {r4, r8, ip, sp, pc}
43e005d4:	fffffff0 			; <UNDEFINED> instruction: 0xfffffff0
43e005d8:	eaffff89 	b	43e00404 <_end+0x43b7ff78>
43e005dc:	ea000047 	b	43e00700 <_end+0x43b80274>
43e005e0:	ea0000ad 	b	43e0089c <_end+0x43b80410>
43e005e4:	56056900 	strpl	r6, [r5], -r0, lsl #18
43e005e8:	ffffff00 			; <UNDEFINED> instruction: 0xffffff00
43e005ec:	eaffff84 	b	43e00404 <_end+0x43b7ff78>
43e005f0:	ea000042 	b	43e00700 <_end+0x43b80274>
43e005f4:	ea0000a8 	b	43e0089c <_end+0x43b80410>
43e005f8:	56158000 	ldrpl	r8, [r5], -r0
43e005fc:	fffff000 			; <UNDEFINED> instruction: 0xfffff000
43e00600:	eaffff7f 	b	43e00404 <_end+0x43b7ff78>
43e00604:	ea00003d 	b	43e00700 <_end+0x43b80274>
43e00608:	ea00009e 	b	43e00888 <_end+0x43b803fc>
43e0060c:	56050000 	strpl	r0, [r5], -r0
43e00610:	ff0f0000 			; <UNDEFINED> instruction: 0xff0f0000
43e00614:	eaffff7a 	b	43e00404 <_end+0x43b7ff78>
43e00618:	ea000038 	b	43e00700 <_end+0x43b80274>
43e0061c:	ea000099 	b	43e00888 <_end+0x43b803fc>
43e00620:	66015261 	strvs	r5, [r1], -r1, ror #4
43e00624:	ff01fff1 			; <UNDEFINED> instruction: 0xff01fff1
43e00628:	eaffff9f 	b	43e004ac <_end+0x43b80020>
43e0062c:	ea000033 	b	43e00700 <_end+0x43b80274>
43e00630:	ea00005a 	b	43e007a0 <_end+0x43b80314>
43e00634:	00020000 	andeq	r0, r2, r0
43e00638:	000f0000 	andeq	r0, pc, r0
43e0063c:	eaffff70 	b	43e00404 <_end+0x43b7ff78>
43e00640:	ea00002e 	b	43e00700 <_end+0x43b80274>
43e00644:	ea000094 	b	43e0089c <_end+0x43b80410>
43e00648:	00050000 	andeq	r0, r5, r0
43e0064c:	000f0000 	andeq	r0, pc, r0
43e00650:	eaffff6b 	b	43e00404 <_end+0x43b7ff78>
43e00654:	ea000029 	b	43e00700 <_end+0x43b80274>
43e00658:	ea00008f 	b	43e0089c <_end+0x43b80410>
43e0065c:	00060000 	andeq	r0, r6, r0
43e00660:	000f0000 	andeq	r0, pc, r0
43e00664:	eaffff66 	b	43e00404 <_end+0x43b7ff78>
43e00668:	ea000024 	b	43e00700 <_end+0x43b80274>
43e0066c:	ea000085 	b	43e00888 <_end+0x43b803fc>
43e00670:	0007b000 	andeq	fp, r7, r0
43e00674:	000ff000 	andeq	pc, pc, r0
43e00678:	eaffff5c 	b	43e003f0 <_end+0x43b7ff64>
43e0067c:	ea00001f 	b	43e00700 <_end+0x43b80274>
43e00680:	ea00004b 	b	43e007b4 <_end+0x43b80328>
43e00684:	000f0000 	andeq	r0, pc, r0
43e00688:	000f0000 	andeq	r0, pc, r0
43e0068c:	eaffff69 	b	43e00438 <_end+0x43b7ffac>
43e00690:	ea000021 	b	43e0071c <_end+0x43b80290>
43e00694:	ea00004c 	b	43e007cc <_end+0x43b80340>
	...
43e006a0:	e1a0f00e 	mov	pc, lr
43e006a4:	e1a0f00e 	mov	pc, lr
43e006a8:	e1a0f00e 	mov	pc, lr
43e006ac:	e320f000 	nop	{0}
43e006b0:	e320f000 	nop	{0}
43e006b4:	e320f000 	nop	{0}
43e006b8:	e320f000 	nop	{0}
43e006bc:	e320f000 	nop	{0}
43e006c0:	e3a0300c 	mov	r3, #12
43e006c4:	eaffff90 	b	43e0050c <_end+0x43b80080>
43e006c8:	ee110f10 	mrc	15, 0, r0, cr1, cr0, {0}
43e006cc:	e3c0000d 	bic	r0, r0, #13
43e006d0:	ee010f10 	mcr	15, 0, r0, cr1, cr0, {0}
43e006d4:	e3a00000 	mov	r0, #0
43e006d8:	ee070f9a 	mcr	15, 0, r0, cr7, cr10, {4}
43e006dc:	ee070f16 	mcr	15, 0, r0, cr7, cr6, {0}
43e006e0:	ee070f15 	mcr	15, 0, r0, cr7, cr5, {0}
43e006e4:	e1a0f00e 	mov	pc, lr
43e006e8:	ee110f10 	mrc	15, 0, r0, cr1, cr0, {0}
43e006ec:	e3c0000d 	bic	r0, r0, #13
43e006f0:	ee010f10 	mcr	15, 0, r0, cr1, cr0, {0}
43e006f4:	e3a00000 	mov	r0, #0
43e006f8:	ee070f10 	mcr	15, 0, r0, cr7, cr0, {0}
43e006fc:	e1a0f00e 	mov	pc, lr
43e00700:	ee110f10 	mrc	15, 0, r0, cr1, cr0, {0}
43e00704:	e3c0000d 	bic	r0, r0, #13
43e00708:	ee010f10 	mcr	15, 0, r0, cr1, cr0, {0}
43e0070c:	e3a00000 	mov	r0, #0
43e00710:	ee070f17 	mcr	15, 0, r0, cr7, cr7, {0}
43e00714:	ee080f17 	mcr	15, 0, r0, cr8, cr7, {0}
43e00718:	e1a0f00e 	mov	pc, lr
43e0071c:	ee110f10 	mrc	15, 0, r0, cr1, cr0, {0}
43e00720:	e3c0000d 	bic	r0, r0, #13
43e00724:	ee010f10 	mcr	15, 0, r0, cr1, cr0, {0}
43e00728:	e1a0c00e 	mov	ip, lr
43e0072c:	eb000026 	bl	43e007cc <_end+0x43b80340>
43e00730:	e3a00000 	mov	r0, #0
43e00734:	ee080f17 	mcr	15, 0, r0, cr8, cr7, {0}
43e00738:	ee070fd5 	mcr	15, 0, r0, cr7, cr5, {6}
43e0073c:	ee070f9a 	mcr	15, 0, r0, cr7, cr10, {4}
43e00740:	ee070f95 	mcr	15, 0, r0, cr7, cr5, {4}
43e00744:	e1a0f00c 	mov	pc, ip
43e00748:	e320f000 	nop	{0}
43e0074c:	e320f000 	nop	{0}
43e00750:	e320f000 	nop	{0}
43e00754:	e320f000 	nop	{0}
43e00758:	e320f000 	nop	{0}
43e0075c:	e320f000 	nop	{0}
43e00760:	e3a03010 	mov	r3, #16
43e00764:	eaffff68 	b	43e0050c <_end+0x43b80080>
43e00768:	e3a02001 	mov	r2, #1
43e0076c:	e3a03000 	mov	r3, #0
43e00770:	ee07cf16 	mcr	15, 0, ip, cr7, cr6, {0}
43e00774:	e3a010e0 	mov	r1, #224	; 0xe0
43e00778:	e381333f 	orr	r3, r1, #-67108864	; 0xfc000000
43e0077c:	ee073f5e 	mcr	15, 0, r3, cr7, cr14, {2}
43e00780:	e2533301 	subs	r3, r3, #67108864	; 0x4000000
43e00784:	2afffffc 	bcs	43e0077c <_end+0x43b802f0>
43e00788:	e2511020 	subs	r1, r1, #32
43e0078c:	2afffff9 	bcs	43e00778 <_end+0x43b802ec>
43e00790:	e3320000 	teq	r2, #0
43e00794:	1e07cf15 	mcrne	15, 0, ip, cr7, cr5, {0}
43e00798:	ee07cf9a 	mcr	15, 0, ip, cr7, cr10, {4}
43e0079c:	e1a0f00e 	mov	pc, lr
43e007a0:	e3a01000 	mov	r1, #0
43e007a4:	ee071f1e 	mcr	15, 0, r1, cr7, cr14, {0}
43e007a8:	ee071f15 	mcr	15, 0, r1, cr7, cr5, {0}
43e007ac:	ee071f9a 	mcr	15, 0, r1, cr7, cr10, {4}
43e007b0:	e1a0f00e 	mov	pc, lr
43e007b4:	e3a01000 	mov	r1, #0
43e007b8:	ee071f1e 	mcr	15, 0, r1, cr7, cr14, {0}
43e007bc:	ee071f15 	mcr	15, 0, r1, cr7, cr5, {0}
43e007c0:	ee071f1f 	mcr	15, 0, r1, cr7, cr15, {0}
43e007c4:	ee071f9a 	mcr	15, 0, r1, cr7, cr10, {4}
43e007c8:	e1a0f00e 	mov	pc, lr
43e007cc:	ee10afb1 	mrc	15, 0, sl, cr0, cr1, {5}
43e007d0:	e31a080f 	tst	sl, #983040	; 0xf0000
43e007d4:	e3a0a000 	mov	sl, #0
43e007d8:	0a000001 	beq	43e007e4 <_end+0x43b80358>
43e007dc:	ee07af1e 	mcr	15, 0, sl, cr7, cr14, {0}
43e007e0:	ea000023 	b	43e00874 <_end+0x43b803e8>
43e007e4:	ee07afba 	mcr	15, 0, sl, cr7, cr10, {5}
43e007e8:	e92d0eff 	push	{r0, r1, r2, r3, r4, r5, r6, r7, r9, sl, fp}
43e007ec:	ee300f30 	mrc	15, 1, r0, cr0, cr0, {1}
43e007f0:	e2103407 	ands	r3, r0, #117440512	; 0x7000000
43e007f4:	e1a03ba3 	lsr	r3, r3, #23
43e007f8:	0a00001a 	beq	43e00868 <_end+0x43b803dc>
43e007fc:	e3a0a000 	mov	sl, #0
43e00800:	e08a20aa 	add	r2, sl, sl, lsr #1
43e00804:	e1a01230 	lsr	r1, r0, r2
43e00808:	e2011007 	and	r1, r1, #7
43e0080c:	e3510002 	cmp	r1, #2
43e00810:	ba000011 	blt	43e0085c <_end+0x43b803d0>
43e00814:	ee40af10 	mcr	15, 2, sl, cr0, cr0, {0}
43e00818:	ee07af95 	mcr	15, 0, sl, cr7, cr5, {4}
43e0081c:	ee301f10 	mrc	15, 1, r1, cr0, cr0, {0}
43e00820:	e2012007 	and	r2, r1, #7
43e00824:	e2822004 	add	r2, r2, #4
43e00828:	e59f40e4 	ldr	r4, [pc, #228]	; 43e00914 <_end+0x43b80488>
43e0082c:	e01441a1 	ands	r4, r4, r1, lsr #3
43e00830:	e16f5f14 	clz	r5, r4
43e00834:	e59f70dc 	ldr	r7, [pc, #220]	; 43e00918 <_end+0x43b8048c>
43e00838:	e01776a1 	ands	r7, r7, r1, lsr #13
43e0083c:	e1a09004 	mov	r9, r4
43e00840:	e18ab519 	orr	fp, sl, r9, lsl r5
43e00844:	e18bb217 	orr	fp, fp, r7, lsl r2
43e00848:	ee07bf5e 	mcr	15, 0, fp, cr7, cr14, {2}
43e0084c:	e2599001 	subs	r9, r9, #1
43e00850:	aafffffa 	bge	43e00840 <_end+0x43b803b4>
43e00854:	e2577001 	subs	r7, r7, #1
43e00858:	aafffff7 	bge	43e0083c <_end+0x43b803b0>
43e0085c:	e28aa002 	add	sl, sl, #2
43e00860:	e153000a 	cmp	r3, sl
43e00864:	caffffe5 	bgt	43e00800 <_end+0x43b80374>
43e00868:	e8bd0eff 	pop	{r0, r1, r2, r3, r4, r5, r6, r7, r9, sl, fp}
43e0086c:	e3a0a000 	mov	sl, #0
43e00870:	ee40af10 	mcr	15, 2, sl, cr0, cr0, {0}
43e00874:	ee07af9a 	mcr	15, 0, sl, cr7, cr10, {4}
43e00878:	ee07af15 	mcr	15, 0, sl, cr7, cr5, {0}
43e0087c:	ee07af9a 	mcr	15, 0, sl, cr7, cr10, {4}
43e00880:	ee07af95 	mcr	15, 0, sl, cr7, cr5, {4}
43e00884:	e1a0f00e 	mov	pc, lr
43e00888:	ee17ff7e 	mrc	15, 0, APSR_nzcv, cr7, cr14, {3}
43e0088c:	1afffffd 	bne	43e00888 <_end+0x43b803fc>
43e00890:	ee070f15 	mcr	15, 0, r0, cr7, cr5, {0}
43e00894:	ee070f9a 	mcr	15, 0, r0, cr7, cr10, {4}
43e00898:	e1a0f00e 	mov	pc, lr
43e0089c:	e3a02801 	mov	r2, #65536	; 0x10000
43e008a0:	e3a0b020 	mov	fp, #32
43e008a4:	ee103f30 	mrc	15, 0, r3, cr0, cr0, {1}
43e008a8:	e1330009 	teq	r3, r9
43e008ac:	0a000009 	beq	43e008d8 <_end+0x43b8044c>
43e008b0:	e1a01923 	lsr	r1, r3, #18
43e008b4:	e2011007 	and	r1, r1, #7
43e008b8:	e3a02b01 	mov	r2, #1024	; 0x400
43e008bc:	e1a02112 	lsl	r2, r2, r1
43e008c0:	e3130901 	tst	r3, #16384	; 0x4000
43e008c4:	108220a2 	addne	r2, r2, r2, lsr #1
43e008c8:	e1a03623 	lsr	r3, r3, #12
43e008cc:	e2033003 	and	r3, r3, #3
43e008d0:	e3a0b008 	mov	fp, #8
43e008d4:	e1a0b31b 	lsl	fp, fp, r3
43e008d8:	e1a0100f 	mov	r1, pc
43e008dc:	e3c1103f 	bic	r1, r1, #63	; 0x3f
43e008e0:	e0812002 	add	r2, r1, r2
43e008e4:	e691300b 	ldr	r3, [r1], fp
43e008e8:	e1310002 	teq	r1, r2
43e008ec:	1afffffc 	bne	43e008e4 <_end+0x43b80458>
43e008f0:	ee071f15 	mcr	15, 0, r1, cr7, cr5, {0}
43e008f4:	ee071f16 	mcr	15, 0, r1, cr7, cr6, {0}
43e008f8:	ee071f9a 	mcr	15, 0, r1, cr7, cr10, {4}
43e008fc:	e1a0f00e 	mov	pc, lr
43e00900:	e3a01000 	mov	r1, #0
43e00904:	ee071f10 	mcr	15, 0, r1, cr7, cr0, {0}
43e00908:	e1a0f00e 	mov	pc, lr
43e0090c:	edfe0dd0 	ldcl	13, cr0, [lr, #832](null)	; 0x340
43e00910:	00040d8c 	andeq	r0, r4, ip, lsl #27
43e00914:	000003ff 	strdeq	r0, [r0], -pc	; <UNPREDICTABLE>
43e00918:	00007fff 	strdeq	r7, [r0], -pc	; <UNPREDICTABLE>
43e0091c:	e320f000 	nop	{0}
43e00920:	eafffffe 	b	43e00920 <_end+0x43b80494>
43e00924:	eafffffe 	b	43e00924 <_end+0x43b80498>
43e00928:	eafffffe 	b	43e00928 <_end+0x43b8049c>
43e0092c:	eafffffe 	b	43e0092c <_end+0x43b804a0>
43e00930:	eafffffe 	b	43e00930 <_end+0x43b804a4>
43e00934:	ea000001 	b	43e00940 <_end+0x43b804b4>
43e00938:	eafffffe 	b	43e00938 <_end+0x43b804ac>
43e0093c:	eafffffe 	b	43e0093c <_end+0x43b804b0>
43e00940:	e3a00000 	mov	r0, #0
43e00944:	e1a0f004 	mov	pc, r4
43e00948:	e320f000 	nop	{0}
43e0094c:	e320f000 	nop	{0}
43e00950:	e320f000 	nop	{0}
43e00954:	e320f000 	nop	{0}
43e00958:	e320f000 	nop	{0}
43e0095c:	e320f000 	nop	{0}
43e00960:	e59f3030 	ldr	r3, [pc, #48]	; 43e00998 <_end+0x43b8050c>
43e00964:	e08f3003 	add	r3, pc, r3
43e00968:	e4d32001 	ldrb	r2, [r3], #1
43e0096c:	e3520000 	cmp	r2, #0
43e00970:	1afffffc 	bne	43e00968 <_end+0x43b804dc>
43e00974:	e4d03001 	ldrb	r3, [r0], #1
43e00978:	e3530000 	cmp	r3, #0
43e0097c:	1afffffc 	bne	43e00974 <_end+0x43b804e8>
43e00980:	e59f3014 	ldr	r3, [pc, #20]	; 43e0099c <_end+0x43b80510>
43e00984:	e08f3003 	add	r3, pc, r3
43e00988:	e4d32001 	ldrb	r2, [r3], #1
43e0098c:	e3520000 	cmp	r2, #0
43e00990:	1afffffc 	bne	43e00988 <_end+0x43b804fc>
43e00994:	eafffffe 	b	43e00994 <_end+0x43b80508>
43e00998:	00005a8c 	andeq	r5, r0, ip, lsl #21
43e0099c:	00005a70 	andeq	r5, r0, r0, ror sl
43e009a0:	e59f0004 	ldr	r0, [pc, #4]	; 43e009ac <_end+0x43b80520>
43e009a4:	e08f0000 	add	r0, pc, r0
43e009a8:	eaffffec 	b	43e00960 <_end+0x43b804d4>
43e009ac:	00005a64 	andeq	r5, r0, r4, ror #20
43e009b0:	e59fc0e4 	ldr	ip, [pc, #228]	; 43e00a9c <_end+0x43b80610>
43e009b4:	e92d4010 	push	{r4, lr}
43e009b8:	e08fc00c 	add	ip, pc, ip
43e009bc:	e59fe0dc 	ldr	lr, [pc, #220]	; 43e00aa0 <_end+0x43b80614>
43e009c0:	e3a04201 	mov	r4, #268435456	; 0x10000000
43e009c4:	e5944000 	ldr	r4, [r4]
43e009c8:	e79ce00e 	ldr	lr, [ip, lr]
43e009cc:	e7e34a54 	ubfx	r4, r4, #20, #4
43e009d0:	e3540005 	cmp	r4, #5
43e009d4:	e58e0000 	str	r0, [lr]
43e009d8:	e59fe0c4 	ldr	lr, [pc, #196]	; 43e00aa4 <_end+0x43b80618>
43e009dc:	e79ce00e 	ldr	lr, [ip, lr]
43e009e0:	e58e1000 	str	r1, [lr]
43e009e4:	e59f10bc 	ldr	r1, [pc, #188]	; 43e00aa8 <_end+0x43b8061c>
43e009e8:	e79c1001 	ldr	r1, [ip, r1]
43e009ec:	e5812000 	str	r2, [r1]
43e009f0:	e3a018ff 	mov	r1, #16711680	; 0xff0000
43e009f4:	e59f20b0 	ldr	r2, [pc, #176]	; 43e00aac <_end+0x43b80620>
43e009f8:	e79c2002 	ldr	r2, [ip, r2]
43e009fc:	e5823000 	str	r3, [r2]
43e00a00:	e3a03000 	mov	r3, #0
43e00a04:	e59f20a4 	ldr	r2, [pc, #164]	; 43e00ab0 <_end+0x43b80624>
43e00a08:	034132c3 	movteq	r3, #4803	; 0x12c3
43e00a0c:	13413383 	movtne	r3, #4995	; 0x1383
43e00a10:	e79c2002 	ldr	r2, [ip, r2]
43e00a14:	e5823000 	str	r3, [r2]
43e00a18:	e59f2094 	ldr	r2, [pc, #148]	; 43e00ab4 <_end+0x43b80628>
43e00a1c:	e59f3094 	ldr	r3, [pc, #148]	; 43e00ab8 <_end+0x43b8062c>
43e00a20:	e79c2002 	ldr	r2, [ip, r2]
43e00a24:	e08f3003 	add	r3, pc, r3
43e00a28:	e5821000 	str	r1, [r2]
43e00a2c:	e3a0180f 	mov	r1, #983040	; 0xf0000
43e00a30:	e59f2084 	ldr	r2, [pc, #132]	; 43e00abc <_end+0x43b80630>
43e00a34:	e79c2002 	ldr	r2, [ip, r2]
43e00a38:	e5821000 	str	r1, [r2]
43e00a3c:	e4d32001 	ldrb	r2, [r3], #1
43e00a40:	e3520000 	cmp	r2, #0
43e00a44:	1afffffc 	bne	43e00a3c <_end+0x43b805b0>
43e00a48:	e59f3070 	ldr	r3, [pc, #112]	; 43e00ac0 <_end+0x43b80634>
43e00a4c:	e1a02000 	mov	r2, r0
43e00a50:	e59f106c 	ldr	r1, [pc, #108]	; 43e00ac4 <_end+0x43b80638>
43e00a54:	e79c0003 	ldr	r0, [ip, r3]
43e00a58:	e59f3068 	ldr	r3, [pc, #104]	; 43e00ac8 <_end+0x43b8063c>
43e00a5c:	e79c1001 	ldr	r1, [ip, r1]
43e00a60:	e79c3003 	ldr	r3, [ip, r3]
43e00a64:	e0601001 	rsb	r1, r0, r1
43e00a68:	eb000a39 	bl	43e03354 <_end+0x43b82ec8>
43e00a6c:	e59f3058 	ldr	r3, [pc, #88]	; 43e00acc <_end+0x43b80640>
43e00a70:	e08f3003 	add	r3, pc, r3
43e00a74:	e3500000 	cmp	r0, #0
43e00a78:	1a000003 	bne	43e00a8c <_end+0x43b80600>
43e00a7c:	e4d32001 	ldrb	r2, [r3], #1
43e00a80:	e3520000 	cmp	r2, #0
43e00a84:	1afffffc 	bne	43e00a7c <_end+0x43b805f0>
43e00a88:	e8bd8010 	pop	{r4, pc}
43e00a8c:	e59f003c 	ldr	r0, [pc, #60]	; 43e00ad0 <_end+0x43b80644>
43e00a90:	e08f0000 	add	r0, pc, r0
43e00a94:	e8bd4010 	pop	{r4, lr}
43e00a98:	eaffffb0 	b	43e00960 <_end+0x43b804d4>
43e00a9c:	0027fa70 	eoreq	pc, r7, r0, ror sl	; <UNPREDICTABLE>
43e00aa0:	00000020 	andeq	r0, r0, r0, lsr #32
43e00aa4:	0000002c 	andeq	r0, r0, ip, lsr #32
43e00aa8:	00000018 	andeq	r0, r0, r8, lsl r0
43e00aac:	00000024 	andeq	r0, r0, r4, lsr #32
43e00ab0:	00000000 	andeq	r0, r0, r0
43e00ab4:	00000010 	andeq	r0, r0, r0, lsl r0
43e00ab8:	00005a00 	andeq	r5, r0, r0, lsl #20
43e00abc:	00000028 	andeq	r0, r0, r8, lsr #32
43e00ac0:	0000000c 	andeq	r0, r0, ip
43e00ac4:	00000004 	andeq	r0, r0, r4
43e00ac8:	0000001c 	andeq	r0, r0, ip, lsl r0
43e00acc:	000059cc 	andeq	r5, r0, ip, asr #19
43e00ad0:	000059c8 	andeq	r5, r0, r8, asr #19
43e00ad4:	e250c000 	subs	ip, r0, #0
43e00ad8:	e59f3070 	ldr	r3, [pc, #112]	; 43e00b50 <_end+0x43b806c4>
43e00adc:	b3a00000 	movlt	r0, #0
43e00ae0:	e08f3003 	add	r3, pc, r3
43e00ae4:	b12fff1e 	bxlt	lr
43e00ae8:	e59f2064 	ldr	r2, [pc, #100]	; 43e00b54 <_end+0x43b806c8>
43e00aec:	e7931002 	ldr	r1, [r3, r2]
43e00af0:	e5912000 	ldr	r2, [r1]
43e00af4:	e3520000 	cmp	r2, #0
43e00af8:	059f2058 	ldreq	r2, [pc, #88]	; 43e00b58 <_end+0x43b806cc>
43e00afc:	07932002 	ldreq	r2, [r3, r2]
43e00b00:	05922000 	ldreq	r2, [r2]
43e00b04:	e2822003 	add	r2, r2, #3
43e00b08:	e3c20003 	bic	r0, r2, #3
43e00b0c:	e59f2048 	ldr	r2, [pc, #72]	; 43e00b5c <_end+0x43b806d0>
43e00b10:	e080c00c 	add	ip, r0, ip
43e00b14:	e581c000 	str	ip, [r1]
43e00b18:	e7932002 	ldr	r2, [r3, r2]
43e00b1c:	e5922000 	ldr	r2, [r2]
43e00b20:	e3520000 	cmp	r2, #0
43e00b24:	0a000001 	beq	43e00b30 <_end+0x43b806a4>
43e00b28:	e15c0002 	cmp	ip, r2
43e00b2c:	2a000005 	bcs	43e00b48 <_end+0x43b806bc>
43e00b30:	e59f2028 	ldr	r2, [pc, #40]	; 43e00b60 <_end+0x43b806d4>
43e00b34:	e7933002 	ldr	r3, [r3, r2]
43e00b38:	e5932000 	ldr	r2, [r3]
43e00b3c:	e2822001 	add	r2, r2, #1
43e00b40:	e5832000 	str	r2, [r3]
43e00b44:	e12fff1e 	bx	lr
43e00b48:	e3a00000 	mov	r0, #0
43e00b4c:	e12fff1e 	bx	lr
43e00b50:	0027f948 	eoreq	pc, r7, r8, asr #18
43e00b54:	00000008 	andeq	r0, r0, r8
43e00b58:	0000002c 	andeq	r0, r0, ip, lsr #32
43e00b5c:	00000018 	andeq	r0, r0, r8, lsl r0
43e00b60:	00000014 	andeq	r0, r0, r4, lsl r0
43e00b64:	e3e00000 	mvn	r0, #0
43e00b68:	e12fff1e 	bx	lr
43e00b6c:	e92d40f8 	push	{r3, r4, r5, r6, r7, lr}
43e00b70:	e1a07000 	mov	r7, r0
43e00b74:	e590401c 	ldr	r4, [r0, #28]
43e00b78:	e5905010 	ldr	r5, [r0, #16]
43e00b7c:	e5946024 	ldr	r6, [r4, #36]	; 0x24
43e00b80:	e0655001 	rsb	r5, r5, r1
43e00b84:	e1550006 	cmp	r5, r6
43e00b88:	2a000016 	bcs	43e00be8 <_end+0x43b8075c>
43e00b8c:	e594302c 	ldr	r3, [r4, #44]	; 0x2c
43e00b90:	e5940030 	ldr	r0, [r4, #48]	; 0x30
43e00b94:	e0636006 	rsb	r6, r3, r6
43e00b98:	e597100c 	ldr	r1, [r7, #12]
43e00b9c:	e1550006 	cmp	r5, r6
43e00ba0:	31a06005 	movcc	r6, r5
43e00ba4:	e0800003 	add	r0, r0, r3
43e00ba8:	e0651001 	rsb	r1, r5, r1
43e00bac:	e1a02006 	mov	r2, r6
43e00bb0:	eb000aa6 	bl	43e03650 <_end+0x43b831c4>
43e00bb4:	e0555006 	subs	r5, r5, r6
43e00bb8:	1a000014 	bne	43e00c10 <_end+0x43b80784>
43e00bbc:	e594202c 	ldr	r2, [r4, #44]	; 0x2c
43e00bc0:	e5943024 	ldr	r3, [r4, #36]	; 0x24
43e00bc4:	e0862002 	add	r2, r6, r2
43e00bc8:	e584202c 	str	r2, [r4, #44]	; 0x2c
43e00bcc:	e1520003 	cmp	r2, r3
43e00bd0:	e5942028 	ldr	r2, [r4, #40]	; 0x28
43e00bd4:	0584502c 	streq	r5, [r4, #44]	; 0x2c
43e00bd8:	e1530002 	cmp	r3, r2
43e00bdc:	80866002 	addhi	r6, r6, r2
43e00be0:	85846028 	strhi	r6, [r4, #40]	; 0x28
43e00be4:	e8bd80f8 	pop	{r3, r4, r5, r6, r7, pc}
43e00be8:	e590100c 	ldr	r1, [r0, #12]
43e00bec:	e1a02006 	mov	r2, r6
43e00bf0:	e5940030 	ldr	r0, [r4, #48]	; 0x30
43e00bf4:	e0661001 	rsb	r1, r6, r1
43e00bf8:	eb000a94 	bl	43e03650 <_end+0x43b831c4>
43e00bfc:	e5943024 	ldr	r3, [r4, #36]	; 0x24
43e00c00:	e3a02000 	mov	r2, #0
43e00c04:	e584202c 	str	r2, [r4, #44]	; 0x2c
43e00c08:	e5843028 	str	r3, [r4, #40]	; 0x28
43e00c0c:	e8bd80f8 	pop	{r3, r4, r5, r6, r7, pc}
43e00c10:	e597100c 	ldr	r1, [r7, #12]
43e00c14:	e1a02005 	mov	r2, r5
43e00c18:	e5940030 	ldr	r0, [r4, #48]	; 0x30
43e00c1c:	e0651001 	rsb	r1, r5, r1
43e00c20:	eb000a8a 	bl	43e03650 <_end+0x43b831c4>
43e00c24:	e5943024 	ldr	r3, [r4, #36]	; 0x24
43e00c28:	e584502c 	str	r5, [r4, #44]	; 0x2c
43e00c2c:	e5843028 	str	r3, [r4, #40]	; 0x28
43e00c30:	e8bd80f8 	pop	{r3, r4, r5, r6, r7, pc}
43e00c34:	e92d0ff0 	push	{r4, r5, r6, r7, r8, r9, sl, fp}
43e00c38:	e24dd078 	sub	sp, sp, #120	; 0x78
43e00c3c:	e28d4036 	add	r4, sp, #54	; 0x36
43e00c40:	e28dc056 	add	ip, sp, #86	; 0x56
43e00c44:	e59d709c 	ldr	r7, [sp, #156]	; 0x9c
43e00c48:	e28d6038 	add	r6, sp, #56	; 0x38
43e00c4c:	e58d3014 	str	r3, [sp, #20]
43e00c50:	e3a03000 	mov	r3, #0
43e00c54:	e58d1024 	str	r1, [sp, #36]	; 0x24
43e00c58:	e1e430b2 	strh	r3, [r4, #2]!
43e00c5c:	e154000c 	cmp	r4, ip
43e00c60:	1afffffc 	bne	43e00c58 <_end+0x43b807cc>
43e00c64:	e3520000 	cmp	r2, #0
43e00c68:	0a00000b 	beq	43e00c9c <_end+0x43b80810>
43e00c6c:	e59d1024 	ldr	r1, [sp, #36]	; 0x24
43e00c70:	e3a03000 	mov	r3, #0
43e00c74:	e2414002 	sub	r4, r1, #2
43e00c78:	e1f410b2 	ldrh	r1, [r4, #2]!
43e00c7c:	e28d5078 	add	r5, sp, #120	; 0x78
43e00c80:	e2833001 	add	r3, r3, #1
43e00c84:	e1530002 	cmp	r3, r2
43e00c88:	e0851081 	add	r1, r5, r1, lsl #1
43e00c8c:	e15154b0 	ldrh	r5, [r1, #-64]	; 0xffffffc0
43e00c90:	e2855001 	add	r5, r5, #1
43e00c94:	e14154b0 	strh	r5, [r1, #-64]	; 0xffffffc0
43e00c98:	1afffff6 	bne	43e00c78 <_end+0x43b807ec>
43e00c9c:	e59d5098 	ldr	r5, [sp, #152]	; 0x98
43e00ca0:	e28d3058 	add	r3, sp, #88	; 0x58
43e00ca4:	e5954000 	ldr	r4, [r5]
43e00ca8:	e3a0500f 	mov	r5, #15
43e00cac:	e17310b2 	ldrh	r1, [r3, #-2]!
43e00cb0:	e3510000 	cmp	r1, #0
43e00cb4:	1a000014 	bne	43e00d0c <_end+0x43b80880>
43e00cb8:	e2555001 	subs	r5, r5, #1
43e00cbc:	1afffffa 	bne	43e00cac <_end+0x43b80820>
43e00cc0:	e59d6014 	ldr	r6, [sp, #20]
43e00cc4:	e3a01000 	mov	r1, #0
43e00cc8:	e59d7098 	ldr	r7, [sp, #152]	; 0x98
43e00ccc:	e1a00001 	mov	r0, r1
43e00cd0:	e3a02001 	mov	r2, #1
43e00cd4:	e3a0c040 	mov	ip, #64	; 0x40
43e00cd8:	e5963000 	ldr	r3, [r6]
43e00cdc:	e2834008 	add	r4, r3, #8
43e00ce0:	e5c3c000 	strb	ip, [r3]
43e00ce4:	e5c32001 	strb	r2, [r3, #1]
43e00ce8:	e1c310b2 	strh	r1, [r3, #2]
43e00cec:	e5c3c004 	strb	ip, [r3, #4]
43e00cf0:	e5c32005 	strb	r2, [r3, #5]
43e00cf4:	e1c310b6 	strh	r1, [r3, #6]
43e00cf8:	e5864000 	str	r4, [r6]
43e00cfc:	e5872000 	str	r2, [r7]
43e00d00:	e28dd078 	add	sp, sp, #120	; 0x78
43e00d04:	e8bd0ff0 	pop	{r4, r5, r6, r7, r8, r9, sl, fp}
43e00d08:	e12fff1e 	bx	lr
43e00d0c:	e3550000 	cmp	r5, #0
43e00d10:	128d3038 	addne	r3, sp, #56	; 0x38
43e00d14:	13a09001 	movne	r9, #1
43e00d18:	0affffe8 	beq	43e00cc0 <_end+0x43b80834>
43e00d1c:	e1f310b2 	ldrh	r1, [r3, #2]!
43e00d20:	e3510000 	cmp	r1, #0
43e00d24:	1a0000d4 	bne	43e0107c <_end+0x43b80bf0>
43e00d28:	e2899001 	add	r9, r9, #1
43e00d2c:	e3590010 	cmp	r9, #16
43e00d30:	1afffff9 	bne	43e00d1c <_end+0x43b80890>
43e00d34:	e58d9010 	str	r9, [sp, #16]
43e00d38:	e28d1038 	add	r1, sp, #56	; 0x38
43e00d3c:	e3a03001 	mov	r3, #1
43e00d40:	e1f140b2 	ldrh	r4, [r1, #2]!
43e00d44:	e0743083 	rsbs	r3, r4, r3, lsl #1
43e00d48:	4a0000c9 	bmi	43e01074 <_end+0x43b80be8>
43e00d4c:	e151000c 	cmp	r1, ip
43e00d50:	1afffffa 	bne	43e00d40 <_end+0x43b808b4>
43e00d54:	e3530000 	cmp	r3, #0
43e00d58:	0a000005 	beq	43e00d74 <_end+0x43b808e8>
43e00d5c:	e2703001 	rsbs	r3, r0, #1
43e00d60:	33a03000 	movcc	r3, #0
43e00d64:	e3550001 	cmp	r5, #1
43e00d68:	13833001 	orrne	r3, r3, #1
43e00d6c:	e3530000 	cmp	r3, #0
43e00d70:	1a0000bf 	bne	43e01074 <_end+0x43b80be8>
43e00d74:	e3a0c000 	mov	ip, #0
43e00d78:	e28d1078 	add	r1, sp, #120	; 0x78
43e00d7c:	e28d4054 	add	r4, sp, #84	; 0x54
43e00d80:	e1a0300c 	mov	r3, ip
43e00d84:	e161c1be 	strh	ip, [r1, #-30]!	; 0xffffffe2
43e00d88:	e1f6c0b2 	ldrh	ip, [r6, #2]!
43e00d8c:	e08c3003 	add	r3, ip, r3
43e00d90:	e1560004 	cmp	r6, r4
43e00d94:	e6ff3073 	uxth	r3, r3
43e00d98:	e1e130b2 	strh	r3, [r1, #2]!
43e00d9c:	1afffff9 	bne	43e00d88 <_end+0x43b808fc>
43e00da0:	e3520000 	cmp	r2, #0
43e00da4:	0a00000e 	beq	43e00de4 <_end+0x43b80958>
43e00da8:	e59d4024 	ldr	r4, [sp, #36]	; 0x24
43e00dac:	e3a03000 	mov	r3, #0
43e00db0:	e2441002 	sub	r1, r4, #2
43e00db4:	e1f1c0b2 	ldrh	ip, [r1, #2]!
43e00db8:	e28d6078 	add	r6, sp, #120	; 0x78
43e00dbc:	e35c0000 	cmp	ip, #0
43e00dc0:	e086c08c 	add	ip, r6, ip, lsl #1
43e00dc4:	115c42b0 	ldrhne	r4, [ip, #-32]	; 0xffffffe0
43e00dc8:	12846001 	addne	r6, r4, #1
43e00dcc:	114c62b0 	strhne	r6, [ip, #-32]	; 0xffffffe0
43e00dd0:	11a04084 	lslne	r4, r4, #1
43e00dd4:	118730b4 	strhne	r3, [r7, r4]
43e00dd8:	e2833001 	add	r3, r3, #1
43e00ddc:	e1530002 	cmp	r3, r2
43e00de0:	1afffff3 	bne	43e00db4 <_end+0x43b80928>
43e00de4:	e3500000 	cmp	r0, #0
43e00de8:	0a0000a9 	beq	43e01094 <_end+0x43b80c08>
43e00dec:	e3500001 	cmp	r0, #1
43e00df0:	0a0000e1 	beq	43e0117c <_end+0x43b80cf0>
43e00df4:	e59f33b4 	ldr	r3, [pc, #948]	; 43e011b0 <_end+0x43b80d24>
43e00df8:	e3e01000 	mvn	r1, #0
43e00dfc:	e58d101c 	str	r1, [sp, #28]
43e00e00:	e08f3003 	add	r3, pc, r3
43e00e04:	e2832080 	add	r2, r3, #128	; 0x80
43e00e08:	e28330c0 	add	r3, r3, #192	; 0xc0
43e00e0c:	e58d2034 	str	r2, [sp, #52]	; 0x34
43e00e10:	e58d3030 	str	r3, [sp, #48]	; 0x30
43e00e14:	e3a0b001 	mov	fp, #1
43e00e18:	e59d4010 	ldr	r4, [sp, #16]
43e00e1c:	e06b3000 	rsb	r3, fp, r0
43e00e20:	e59d6014 	ldr	r6, [sp, #20]
43e00e24:	e2730000 	rsbs	r0, r3, #0
43e00e28:	e1a0441b 	lsl	r4, fp, r4
43e00e2c:	e0a00003 	adc	r0, r0, r3
43e00e30:	e30035af 	movw	r3, #1455	; 0x5af
43e00e34:	e58d002c 	str	r0, [sp, #44]	; 0x2c
43e00e38:	e1540003 	cmp	r4, r3
43e00e3c:	93a00000 	movls	r0, #0
43e00e40:	82000001 	andhi	r0, r0, #1
43e00e44:	e5966000 	ldr	r6, [r6]
43e00e48:	e3500000 	cmp	r0, #0
43e00e4c:	e244c001 	sub	ip, r4, #1
43e00e50:	e58d4018 	str	r4, [sp, #24]
43e00e54:	e58dc028 	str	ip, [sp, #40]	; 0x28
43e00e58:	11a0000b 	movne	r0, fp
43e00e5c:	e58d600c 	str	r6, [sp, #12]
43e00e60:	1affffa6 	bne	43e00d00 <_end+0x43b80874>
43e00e64:	e59dc010 	ldr	ip, [sp, #16]
43e00e68:	e3e01000 	mvn	r1, #0
43e00e6c:	e1a0a000 	mov	sl, r0
43e00e70:	e58d1020 	str	r1, [sp, #32]
43e00e74:	e1a08005 	mov	r8, r5
43e00e78:	e1a01009 	mov	r1, r9
43e00e7c:	e2477002 	sub	r7, r7, #2
43e00e80:	e58d7008 	str	r7, [sp, #8]
43e00e84:	e59d2008 	ldr	r2, [sp, #8]
43e00e88:	e6ef6071 	uxtb	r6, r1
43e00e8c:	e59d301c 	ldr	r3, [sp, #28]
43e00e90:	e1f240b2 	ldrh	r4, [r2, #2]!
43e00e94:	e1530004 	cmp	r3, r4
43e00e98:	e58d2008 	str	r2, [sp, #8]
43e00e9c:	c3a02000 	movgt	r2, #0
43e00ea0:	c58d2000 	strgt	r2, [sp]
43e00ea4:	ca000008 	bgt	43e00ecc <_end+0x43b80a40>
43e00ea8:	b59d5034 	ldrlt	r5, [sp, #52]	; 0x34
43e00eac:	b1a04084 	lsllt	r4, r4, #1
43e00eb0:	b59d7030 	ldrlt	r7, [sp, #48]	; 0x30
43e00eb4:	a3a04000 	movge	r4, #0
43e00eb8:	a3a03060 	movge	r3, #96	; 0x60
43e00ebc:	a58d3000 	strge	r3, [sp]
43e00ec0:	b7d55004 	ldrblt	r5, [r5, r4]
43e00ec4:	b19740b4 	ldrhlt	r4, [r7, r4]
43e00ec8:	b58d5000 	strlt	r5, [sp]
43e00ecc:	e1a05c1b 	lsl	r5, fp, ip
43e00ed0:	e1a0111b 	lsl	r1, fp, r1
43e00ed4:	e0853a30 	add	r3, r5, r0, lsr sl
43e00ed8:	e59d700c 	ldr	r7, [sp, #12]
43e00edc:	e0613003 	rsb	r3, r1, r3
43e00ee0:	e58d5004 	str	r5, [sp, #4]
43e00ee4:	e0615f01 	rsb	r5, r1, r1, lsl #30
43e00ee8:	e59d2004 	ldr	r2, [sp, #4]
43e00eec:	e0873103 	add	r3, r7, r3, lsl #2
43e00ef0:	e59d7000 	ldr	r7, [sp]
43e00ef4:	e1a05105 	lsl	r5, r5, #2
43e00ef8:	e0522001 	subs	r2, r2, r1
43e00efc:	e5c37000 	strb	r7, [r3]
43e00f00:	e5c36001 	strb	r6, [r3, #1]
43e00f04:	e1c340b2 	strh	r4, [r3, #2]
43e00f08:	e0833005 	add	r3, r3, r5
43e00f0c:	1afffff9 	bne	43e00ef8 <_end+0x43b80a6c>
43e00f10:	e2492001 	sub	r2, r9, #1
43e00f14:	e1a0321b 	lsl	r3, fp, r2
43e00f18:	e1130000 	tst	r3, r0
43e00f1c:	0a000002 	beq	43e00f2c <_end+0x43b80aa0>
43e00f20:	e1a030a3 	lsr	r3, r3, #1
43e00f24:	e1130000 	tst	r3, r0
43e00f28:	1afffffc 	bne	43e00f20 <_end+0x43b80a94>
43e00f2c:	e3530000 	cmp	r3, #0
43e00f30:	12431001 	subne	r1, r3, #1
43e00f34:	10010000 	andne	r0, r1, r0
43e00f38:	01a00003 	moveq	r0, r3
43e00f3c:	10800003 	addne	r0, r0, r3
43e00f40:	e28d3078 	add	r3, sp, #120	; 0x78
43e00f44:	e0831089 	add	r1, r3, r9, lsl #1
43e00f48:	e15134b0 	ldrh	r3, [r1, #-64]	; 0xffffffc0
43e00f4c:	e2433001 	sub	r3, r3, #1
43e00f50:	e6ff3073 	uxth	r3, r3
43e00f54:	e14134b0 	strh	r3, [r1, #-64]	; 0xffffffc0
43e00f58:	e3530000 	cmp	r3, #0
43e00f5c:	1a000006 	bne	43e00f7c <_end+0x43b80af0>
43e00f60:	e1590008 	cmp	r9, r8
43e00f64:	0a000051 	beq	43e010b0 <_end+0x43b80c24>
43e00f68:	e59d4008 	ldr	r4, [sp, #8]
43e00f6c:	e59d5024 	ldr	r5, [sp, #36]	; 0x24
43e00f70:	e1d430b2 	ldrh	r3, [r4, #2]
43e00f74:	e1a03083 	lsl	r3, r3, #1
43e00f78:	e19590b3 	ldrh	r9, [r5, r3]
43e00f7c:	e59d6010 	ldr	r6, [sp, #16]
43e00f80:	e1590006 	cmp	r9, r6
43e00f84:	9a000047 	bls	43e010a8 <_end+0x43b80c1c>
43e00f88:	e59d7028 	ldr	r7, [sp, #40]	; 0x28
43e00f8c:	e59d1020 	ldr	r1, [sp, #32]
43e00f90:	e0005007 	and	r5, r0, r7
43e00f94:	e1550001 	cmp	r5, r1
43e00f98:	0a000042 	beq	43e010a8 <_end+0x43b80c1c>
43e00f9c:	e59d2010 	ldr	r2, [sp, #16]
43e00fa0:	e35a0000 	cmp	sl, #0
43e00fa4:	01a0a002 	moveq	sl, r2
43e00fa8:	e1590008 	cmp	r9, r8
43e00fac:	e06ac009 	rsb	ip, sl, r9
43e00fb0:	e1a0100c 	mov	r1, ip
43e00fb4:	2a000011 	bcs	43e01000 <_end+0x43b80b74>
43e00fb8:	e1a04089 	lsl	r4, r9, #1
43e00fbc:	e28d6078 	add	r6, sp, #120	; 0x78
43e00fc0:	e0863004 	add	r3, r6, r4
43e00fc4:	e15334b0 	ldrh	r3, [r3, #-64]	; 0xffffffc0
43e00fc8:	e0633c1b 	rsb	r3, r3, fp, lsl ip
43e00fcc:	e3530000 	cmp	r3, #0
43e00fd0:	c28d7038 	addgt	r7, sp, #56	; 0x38
43e00fd4:	c0874004 	addgt	r4, r7, r4
43e00fd8:	ca000004 	bgt	43e00ff0 <_end+0x43b80b64>
43e00fdc:	ea000007 	b	43e01000 <_end+0x43b80b74>
43e00fe0:	e1f420b2 	ldrh	r2, [r4, #2]!
43e00fe4:	e0623083 	rsb	r3, r2, r3, lsl #1
43e00fe8:	e3530000 	cmp	r3, #0
43e00fec:	da000003 	ble	43e01000 <_end+0x43b80b74>
43e00ff0:	e28cc001 	add	ip, ip, #1
43e00ff4:	e08c200a 	add	r2, ip, sl
43e00ff8:	e1520008 	cmp	r2, r8
43e00ffc:	3afffff7 	bcc	43e00fe0 <_end+0x43b80b54>
43e01000:	e59d2018 	ldr	r2, [sp, #24]
43e01004:	e30045af 	movw	r4, #1455	; 0x5af
43e01008:	e59d302c 	ldr	r3, [sp, #44]	; 0x2c
43e0100c:	e0822c1b 	add	r2, r2, fp, lsl ip
43e01010:	e58d2018 	str	r2, [sp, #24]
43e01014:	e1520004 	cmp	r2, r4
43e01018:	93a03000 	movls	r3, #0
43e0101c:	82033001 	andhi	r3, r3, #1
43e01020:	e3530000 	cmp	r3, #0
43e01024:	1a00005f 	bne	43e011a8 <_end+0x43b80d1c>
43e01028:	e59d6014 	ldr	r6, [sp, #20]
43e0102c:	e1a03105 	lsl	r3, r5, #2
43e01030:	e58d5020 	str	r5, [sp, #32]
43e01034:	e59d4004 	ldr	r4, [sp, #4]
43e01038:	e5962000 	ldr	r2, [r6]
43e0103c:	e59d700c 	ldr	r7, [sp, #12]
43e01040:	e7c2c105 	strb	ip, [r2, r5, lsl #2]
43e01044:	e0877104 	add	r7, r7, r4, lsl #2
43e01048:	e5962000 	ldr	r2, [r6]
43e0104c:	e59d5010 	ldr	r5, [sp, #16]
43e01050:	e0822003 	add	r2, r2, r3
43e01054:	e58d700c 	str	r7, [sp, #12]
43e01058:	e5c25001 	strb	r5, [r2, #1]
43e0105c:	e5962000 	ldr	r2, [r6]
43e01060:	e0823003 	add	r3, r2, r3
43e01064:	e0622007 	rsb	r2, r2, r7
43e01068:	e1a02142 	asr	r2, r2, #2
43e0106c:	e1c320b2 	strh	r2, [r3, #2]
43e01070:	eaffff83 	b	43e00e84 <_end+0x43b809f8>
43e01074:	e3e00000 	mvn	r0, #0
43e01078:	eaffff20 	b	43e00d00 <_end+0x43b80874>
43e0107c:	e1550004 	cmp	r5, r4
43e01080:	31a04005 	movcc	r4, r5
43e01084:	e1540009 	cmp	r4, r9
43e01088:	31a04009 	movcc	r4, r9
43e0108c:	e58d4010 	str	r4, [sp, #16]
43e01090:	eaffff28 	b	43e00d38 <_end+0x43b808ac>
43e01094:	e3a03013 	mov	r3, #19
43e01098:	e58d7034 	str	r7, [sp, #52]	; 0x34
43e0109c:	e58d7030 	str	r7, [sp, #48]	; 0x30
43e010a0:	e58d301c 	str	r3, [sp, #28]
43e010a4:	eaffff5a 	b	43e00e14 <_end+0x43b80988>
43e010a8:	e06a1009 	rsb	r1, sl, r9
43e010ac:	eaffff74 	b	43e00e84 <_end+0x43b809f8>
43e010b0:	e3500000 	cmp	r0, #0
43e010b4:	0a00001f 	beq	43e01138 <_end+0x43b80cac>
43e010b8:	e59d7010 	ldr	r7, [sp, #16]
43e010bc:	e3a05040 	mov	r5, #64	; 0x40
43e010c0:	e59d900c 	ldr	r9, [sp, #12]
43e010c4:	e6ef8077 	uxtb	r8, r7
43e010c8:	e3a07001 	mov	r7, #1
43e010cc:	e35a0000 	cmp	sl, #0
43e010d0:	0a000022 	beq	43e01160 <_end+0x43b80cd4>
43e010d4:	e59dc028 	ldr	ip, [sp, #40]	; 0x28
43e010d8:	e59d4020 	ldr	r4, [sp, #32]
43e010dc:	e000100c 	and	r1, r0, ip
43e010e0:	e1510004 	cmp	r1, r4
43e010e4:	0a00001d 	beq	43e01160 <_end+0x43b80cd4>
43e010e8:	e59d6014 	ldr	r6, [sp, #20]
43e010ec:	e3a0a000 	mov	sl, #0
43e010f0:	e59dc010 	ldr	ip, [sp, #16]
43e010f4:	e1a0400a 	mov	r4, sl
43e010f8:	e24c2001 	sub	r2, ip, #1
43e010fc:	e5969000 	ldr	r9, [r6]
43e01100:	e1a06008 	mov	r6, r8
43e01104:	e1a04430 	lsr	r4, r0, r4
43e01108:	e1a01217 	lsl	r1, r7, r2
43e0110c:	e1110000 	tst	r1, r0
43e01110:	e089c104 	add	ip, r9, r4, lsl #2
43e01114:	e7c95104 	strb	r5, [r9, r4, lsl #2]
43e01118:	e5cc6001 	strb	r6, [ip, #1]
43e0111c:	e1cc30b2 	strh	r3, [ip, #2]
43e01120:	0a000002 	beq	43e01130 <_end+0x43b80ca4>
43e01124:	e1a010a1 	lsr	r1, r1, #1
43e01128:	e1110000 	tst	r1, r0
43e0112c:	1afffffc 	bne	43e01124 <_end+0x43b80c98>
43e01130:	e3510000 	cmp	r1, #0
43e01134:	1a00000b 	bne	43e01168 <_end+0x43b80cdc>
43e01138:	e59d1014 	ldr	r1, [sp, #20]
43e0113c:	e3a00000 	mov	r0, #0
43e01140:	e59d2018 	ldr	r2, [sp, #24]
43e01144:	e59d4098 	ldr	r4, [sp, #152]	; 0x98
43e01148:	e5913000 	ldr	r3, [r1]
43e0114c:	e0833102 	add	r3, r3, r2, lsl #2
43e01150:	e5813000 	str	r3, [r1]
43e01154:	e59d3010 	ldr	r3, [sp, #16]
43e01158:	e5843000 	str	r3, [r4]
43e0115c:	eafffee7 	b	43e00d00 <_end+0x43b80874>
43e01160:	e1a0400a 	mov	r4, sl
43e01164:	eaffffe6 	b	43e01104 <_end+0x43b80c78>
43e01168:	e241c001 	sub	ip, r1, #1
43e0116c:	e00c0000 	and	r0, ip, r0
43e01170:	e0900001 	adds	r0, r0, r1
43e01174:	1affffd4 	bne	43e010cc <_end+0x43b80c40>
43e01178:	eaffffee 	b	43e01138 <_end+0x43b80cac>
43e0117c:	e59f3030 	ldr	r3, [pc, #48]	; 43e011b4 <_end+0x43b80d28>
43e01180:	e3a0cc01 	mov	ip, #256	; 0x100
43e01184:	e58dc01c 	str	ip, [sp, #28]
43e01188:	e08f3003 	add	r3, pc, r3
43e0118c:	e2432c02 	sub	r2, r3, #512	; 0x200
43e01190:	e2433d07 	sub	r3, r3, #448	; 0x1c0
43e01194:	e2422002 	sub	r2, r2, #2
43e01198:	e2433002 	sub	r3, r3, #2
43e0119c:	e58d2034 	str	r2, [sp, #52]	; 0x34
43e011a0:	e58d3030 	str	r3, [sp, #48]	; 0x30
43e011a4:	eaffff1a 	b	43e00e14 <_end+0x43b80988>
43e011a8:	e3a00001 	mov	r0, #1
43e011ac:	eafffed3 	b	43e00d00 <_end+0x43b80874>
43e011b0:	00004c48 	andeq	r4, r0, r8, asr #24
43e011b4:	000048c0 	andeq	r4, r0, r0, asr #17
43e011b8:	e92d0ff0 	push	{r4, r5, r6, r7, r8, r9, sl, fp}
43e011bc:	e24dd048 	sub	sp, sp, #72	; 0x48
43e011c0:	e590201c 	ldr	r2, [r0, #28]
43e011c4:	e3a08001 	mov	r8, #1
43e011c8:	e5905010 	ldr	r5, [r0, #16]
43e011cc:	e1a03008 	mov	r3, r8
43e011d0:	e8900050 	ldm	r0, {r4, r6}
43e011d4:	e2457c01 	sub	r7, r5, #256	; 0x100
43e011d8:	e0611005 	rsb	r1, r1, r5
43e011dc:	e592502c 	ldr	r5, [r2, #44]	; 0x2c
43e011e0:	e2444001 	sub	r4, r4, #1
43e011e4:	e592b024 	ldr	fp, [r2, #36]	; 0x24
43e011e8:	e2466005 	sub	r6, r6, #5
43e011ec:	e590c00c 	ldr	ip, [r0, #12]
43e011f0:	e0846006 	add	r6, r4, r6
43e011f4:	e58d5010 	str	r5, [sp, #16]
43e011f8:	e2477001 	sub	r7, r7, #1
43e011fc:	e5925028 	ldr	r5, [r2, #40]	; 0x28
43e01200:	e24cc001 	sub	ip, ip, #1
43e01204:	e5929054 	ldr	r9, [r2, #84]	; 0x54
43e01208:	e08c1001 	add	r1, ip, r1
43e0120c:	e592a050 	ldr	sl, [r2, #80]	; 0x50
43e01210:	e08c7007 	add	r7, ip, r7
43e01214:	e58db014 	str	fp, [sp, #20]
43e01218:	e592b030 	ldr	fp, [r2, #48]	; 0x30
43e0121c:	e1a0aa18 	lsl	sl, r8, sl
43e01220:	e58d5028 	str	r5, [sp, #40]	; 0x28
43e01224:	e1a08918 	lsl	r8, r8, r9
43e01228:	e58d6004 	str	r6, [sp, #4]
43e0122c:	e24aa001 	sub	sl, sl, #1
43e01230:	e58d1024 	str	r1, [sp, #36]	; 0x24
43e01234:	e2488001 	sub	r8, r8, #1
43e01238:	e5925034 	ldr	r5, [r2, #52]	; 0x34
43e0123c:	e5926038 	ldr	r6, [r2, #56]	; 0x38
43e01240:	e5921048 	ldr	r1, [r2, #72]	; 0x48
43e01244:	e592904c 	ldr	r9, [r2, #76]	; 0x4c
43e01248:	e58da00c 	str	sl, [sp, #12]
43e0124c:	e58d8020 	str	r8, [sp, #32]
43e01250:	e59da014 	ldr	sl, [sp, #20]
43e01254:	e59d8010 	ldr	r8, [sp, #16]
43e01258:	e58db018 	str	fp, [sp, #24]
43e0125c:	e58d7008 	str	r7, [sp, #8]
43e01260:	e24b7001 	sub	r7, fp, #1
43e01264:	e1a0b000 	mov	fp, r0
43e01268:	e088800a 	add	r8, r8, sl
43e0126c:	e58d702c 	str	r7, [sp, #44]	; 0x2c
43e01270:	e58d8030 	str	r8, [sp, #48]	; 0x30
43e01274:	e58d201c 	str	r2, [sp, #28]
43e01278:	e356000e 	cmp	r6, #14
43e0127c:	8a000007 	bhi	43e012a0 <_end+0x43b80e14>
43e01280:	e5d47002 	ldrb	r7, [r4, #2]
43e01284:	e2860008 	add	r0, r6, #8
43e01288:	e5d42001 	ldrb	r2, [r4, #1]
43e0128c:	e2844002 	add	r4, r4, #2
43e01290:	e1a00017 	lsl	r0, r7, r0
43e01294:	e0800612 	add	r0, r0, r2, lsl r6
43e01298:	e2866010 	add	r6, r6, #16
43e0129c:	e0855000 	add	r5, r5, r0
43e012a0:	e59d200c 	ldr	r2, [sp, #12]
43e012a4:	e0050002 	and	r0, r5, r2
43e012a8:	e0812100 	add	r2, r1, r0, lsl #2
43e012ac:	e7d17100 	ldrb	r7, [r1, r0, lsl #2]
43e012b0:	e5d20001 	ldrb	r0, [r2, #1]
43e012b4:	e3570000 	cmp	r7, #0
43e012b8:	e1d220b2 	ldrh	r2, [r2, #2]
43e012bc:	e1a05035 	lsr	r5, r5, r0
43e012c0:	e0606006 	rsb	r6, r0, r6
43e012c4:	1a00000e 	bne	43e01304 <_end+0x43b80e78>
43e012c8:	ea00005c 	b	43e01440 <_end+0x43b80fb4>
43e012cc:	e3170040 	tst	r7, #64	; 0x40
43e012d0:	1a000064 	bne	43e01468 <_end+0x43b80fdc>
43e012d4:	e1a07713 	lsl	r7, r3, r7
43e012d8:	e2477001 	sub	r7, r7, #1
43e012dc:	e0077005 	and	r7, r7, r5
43e012e0:	e0872002 	add	r2, r7, r2
43e012e4:	e7d17102 	ldrb	r7, [r1, r2, lsl #2]
43e012e8:	e0812102 	add	r2, r1, r2, lsl #2
43e012ec:	e3570000 	cmp	r7, #0
43e012f0:	e5d20001 	ldrb	r0, [r2, #1]
43e012f4:	e1d220b2 	ldrh	r2, [r2, #2]
43e012f8:	e1a05035 	lsr	r5, r5, r0
43e012fc:	e0606006 	rsb	r6, r0, r6
43e01300:	0a00004e 	beq	43e01440 <_end+0x43b80fb4>
43e01304:	e3170010 	tst	r7, #16
43e01308:	0affffef 	beq	43e012cc <_end+0x43b80e40>
43e0130c:	e217700f 	ands	r7, r7, #15
43e01310:	e1a00002 	mov	r0, r2
43e01314:	0a00000a 	beq	43e01344 <_end+0x43b80eb8>
43e01318:	e1570006 	cmp	r7, r6
43e0131c:	85d40001 	ldrbhi	r0, [r4, #1]
43e01320:	82844001 	addhi	r4, r4, #1
43e01324:	80855610 	addhi	r5, r5, r0, lsl r6
43e01328:	e1a00713 	lsl	r0, r3, r7
43e0132c:	e2400001 	sub	r0, r0, #1
43e01330:	82866008 	addhi	r6, r6, #8
43e01334:	e0050000 	and	r0, r5, r0
43e01338:	e0676006 	rsb	r6, r7, r6
43e0133c:	e1a05735 	lsr	r5, r5, r7
43e01340:	e0820000 	add	r0, r2, r0
43e01344:	e356000e 	cmp	r6, #14
43e01348:	9a000052 	bls	43e01498 <_end+0x43b8100c>
43e0134c:	e59d7020 	ldr	r7, [sp, #32]
43e01350:	e0052007 	and	r2, r5, r7
43e01354:	e0897102 	add	r7, r9, r2, lsl #2
43e01358:	e7d92102 	ldrb	r2, [r9, r2, lsl #2]
43e0135c:	e5d7a001 	ldrb	sl, [r7, #1]
43e01360:	e3120010 	tst	r2, #16
43e01364:	e1d780b2 	ldrh	r8, [r7, #2]
43e01368:	e1a05a35 	lsr	r5, r5, sl
43e0136c:	e06a6006 	rsb	r6, sl, r6
43e01370:	0a00000c 	beq	43e013a8 <_end+0x43b80f1c>
43e01374:	ea000050 	b	43e014bc <_end+0x43b81030>
43e01378:	e1a02213 	lsl	r2, r3, r2
43e0137c:	e2422001 	sub	r2, r2, #1
43e01380:	e0022005 	and	r2, r2, r5
43e01384:	e0828008 	add	r8, r2, r8
43e01388:	e089a108 	add	sl, r9, r8, lsl #2
43e0138c:	e7d92108 	ldrb	r2, [r9, r8, lsl #2]
43e01390:	e5da7001 	ldrb	r7, [sl, #1]
43e01394:	e3120010 	tst	r2, #16
43e01398:	e1da80b2 	ldrh	r8, [sl, #2]
43e0139c:	e1a05735 	lsr	r5, r5, r7
43e013a0:	e0676006 	rsb	r6, r7, r6
43e013a4:	1a000044 	bne	43e014bc <_end+0x43b81030>
43e013a8:	e3120040 	tst	r2, #64	; 0x40
43e013ac:	0afffff1 	beq	43e01378 <_end+0x43b80eec>
43e013b0:	e59d201c 	ldr	r2, [sp, #28]
43e013b4:	e1a0000b 	mov	r0, fp
43e013b8:	e59f3488 	ldr	r3, [pc, #1160]	; 43e01848 <_end+0x43b813bc>
43e013bc:	e08f3003 	add	r3, pc, r3
43e013c0:	e58b3018 	str	r3, [fp, #24]
43e013c4:	e3a0301b 	mov	r3, #27
43e013c8:	e5823000 	str	r3, [r2]
43e013cc:	e1a031a6 	lsr	r3, r6, #3
43e013d0:	e59da004 	ldr	sl, [sp, #4]
43e013d4:	e0634004 	rsb	r4, r3, r4
43e013d8:	e28c1001 	add	r1, ip, #1
43e013dc:	e15a0004 	cmp	sl, r4
43e013e0:	e0466183 	sub	r6, r6, r3, lsl #3
43e013e4:	e2843001 	add	r3, r4, #1
43e013e8:	e5803000 	str	r3, [r0]
43e013ec:	959db004 	ldrls	fp, [sp, #4]
43e013f0:	8064400a 	rsbhi	r4, r4, sl
43e013f4:	e59d3008 	ldr	r3, [sp, #8]
43e013f8:	9064400b 	rsbls	r4, r4, fp
43e013fc:	e580100c 	str	r1, [r0, #12]
43e01400:	e15c0003 	cmp	ip, r3
43e01404:	e3e01000 	mvn	r1, #0
43e01408:	306cc003 	rsbcc	ip, ip, r3
43e0140c:	e1c55611 	bic	r5, r5, r1, lsl r6
43e01410:	259d7008 	ldrcs	r7, [sp, #8]
43e01414:	e2844005 	add	r4, r4, #5
43e01418:	e5804004 	str	r4, [r0, #4]
43e0141c:	206cc007 	rsbcs	ip, ip, r7
43e01420:	e28ccc01 	add	ip, ip, #256	; 0x100
43e01424:	e28cc001 	add	ip, ip, #1
43e01428:	e580c010 	str	ip, [r0, #16]
43e0142c:	e5825034 	str	r5, [r2, #52]	; 0x34
43e01430:	e5826038 	str	r6, [r2, #56]	; 0x38
43e01434:	e28dd048 	add	sp, sp, #72	; 0x48
43e01438:	e8bd0ff0 	pop	{r4, r5, r6, r7, r8, r9, sl, fp}
43e0143c:	e12fff1e 	bx	lr
43e01440:	e5cc2001 	strb	r2, [ip, #1]
43e01444:	e28cc001 	add	ip, ip, #1
43e01448:	e59d7008 	ldr	r7, [sp, #8]
43e0144c:	e59d8004 	ldr	r8, [sp, #4]
43e01450:	e15c0007 	cmp	ip, r7
43e01454:	31540008 	cmpcc	r4, r8
43e01458:	3affff86 	bcc	43e01278 <_end+0x43b80dec>
43e0145c:	e59d201c 	ldr	r2, [sp, #28]
43e01460:	e1a0000b 	mov	r0, fp
43e01464:	eaffffd8 	b	43e013cc <_end+0x43b80f40>
43e01468:	e59d201c 	ldr	r2, [sp, #28]
43e0146c:	e3170020 	tst	r7, #32
43e01470:	e1a0000b 	mov	r0, fp
43e01474:	13a0300b 	movne	r3, #11
43e01478:	15823000 	strne	r3, [r2]
43e0147c:	1affffd2 	bne	43e013cc <_end+0x43b80f40>
43e01480:	e59f33c4 	ldr	r3, [pc, #964]	; 43e0184c <_end+0x43b813c0>
43e01484:	e08f3003 	add	r3, pc, r3
43e01488:	e58b3018 	str	r3, [fp, #24]
43e0148c:	e3a0301b 	mov	r3, #27
43e01490:	e5823000 	str	r3, [r2]
43e01494:	eaffffcc 	b	43e013cc <_end+0x43b80f40>
43e01498:	e5d47002 	ldrb	r7, [r4, #2]
43e0149c:	e2862008 	add	r2, r6, #8
43e014a0:	e5d48001 	ldrb	r8, [r4, #1]
43e014a4:	e2844002 	add	r4, r4, #2
43e014a8:	e1a02217 	lsl	r2, r7, r2
43e014ac:	e0822618 	add	r2, r2, r8, lsl r6
43e014b0:	e2866010 	add	r6, r6, #16
43e014b4:	e0855002 	add	r5, r5, r2
43e014b8:	eaffffa3 	b	43e0134c <_end+0x43b80ec0>
43e014bc:	e202a00f 	and	sl, r2, #15
43e014c0:	e15a0006 	cmp	sl, r6
43e014c4:	9a000009 	bls	43e014f0 <_end+0x43b81064>
43e014c8:	e5d47001 	ldrb	r7, [r4, #1]
43e014cc:	e2862008 	add	r2, r6, #8
43e014d0:	e15a0002 	cmp	sl, r2
43e014d4:	92844001 	addls	r4, r4, #1
43e014d8:	e0855617 	add	r5, r5, r7, lsl r6
43e014dc:	85d47002 	ldrbhi	r7, [r4, #2]
43e014e0:	82866010 	addhi	r6, r6, #16
43e014e4:	82844002 	addhi	r4, r4, #2
43e014e8:	91a06002 	movls	r6, r2
43e014ec:	80855217 	addhi	r5, r5, r7, lsl r2
43e014f0:	e1a02a13 	lsl	r2, r3, sl
43e014f4:	e58d2034 	str	r2, [sp, #52]	; 0x34
43e014f8:	e59d2024 	ldr	r2, [sp, #36]	; 0x24
43e014fc:	e06a6006 	rsb	r6, sl, r6
43e01500:	e062700c 	rsb	r7, r2, ip
43e01504:	e59d2034 	ldr	r2, [sp, #52]	; 0x34
43e01508:	e2422001 	sub	r2, r2, #1
43e0150c:	e0052002 	and	r2, r5, r2
43e01510:	e58d2034 	str	r2, [sp, #52]	; 0x34
43e01514:	e0822008 	add	r2, r2, r8
43e01518:	e1a05a35 	lsr	r5, r5, sl
43e0151c:	e1520007 	cmp	r2, r7
43e01520:	9a00002d 	bls	43e015dc <_end+0x43b81150>
43e01524:	e0678002 	rsb	r8, r7, r2
43e01528:	e59d7028 	ldr	r7, [sp, #40]	; 0x28
43e0152c:	e1570008 	cmp	r7, r8
43e01530:	3a0000bc 	bcc	43e01828 <_end+0x43b8139c>
43e01534:	e59da010 	ldr	sl, [sp, #16]
43e01538:	e35a0000 	cmp	sl, #0
43e0153c:	1a000064 	bne	43e016d4 <_end+0x43b81248>
43e01540:	e59da014 	ldr	sl, [sp, #20]
43e01544:	e1500008 	cmp	r0, r8
43e01548:	e068700a 	rsb	r7, r8, sl
43e0154c:	e59da02c 	ldr	sl, [sp, #44]	; 0x2c
43e01550:	e08a7007 	add	r7, sl, r7
43e01554:	8a0000a6 	bhi	43e017f4 <_end+0x43b81368>
43e01558:	e3500002 	cmp	r0, #2
43e0155c:	9a000014 	bls	43e015b4 <_end+0x43b81128>
43e01560:	e2878003 	add	r8, r7, #3
43e01564:	e1a0200c 	mov	r2, ip
43e01568:	e06c8008 	rsb	r8, ip, r8
43e0156c:	e58d4034 	str	r4, [sp, #52]	; 0x34
43e01570:	e58d1038 	str	r1, [sp, #56]	; 0x38
43e01574:	e5d7c001 	ldrb	ip, [r7, #1]
43e01578:	e2400003 	sub	r0, r0, #3
43e0157c:	e2821003 	add	r1, r2, #3
43e01580:	e3500002 	cmp	r0, #2
43e01584:	e088a002 	add	sl, r8, r2
43e01588:	e5c2c001 	strb	ip, [r2, #1]
43e0158c:	e1a0c001 	mov	ip, r1
43e01590:	e5d74002 	ldrb	r4, [r7, #2]
43e01594:	e5c24002 	strb	r4, [r2, #2]
43e01598:	e5f74003 	ldrb	r4, [r7, #3]!
43e0159c:	e5c24003 	strb	r4, [r2, #3]
43e015a0:	e1a02001 	mov	r2, r1
43e015a4:	8afffff2 	bhi	43e01574 <_end+0x43b810e8>
43e015a8:	e59d4034 	ldr	r4, [sp, #52]	; 0x34
43e015ac:	e1a0700a 	mov	r7, sl
43e015b0:	e59d1038 	ldr	r1, [sp, #56]	; 0x38
43e015b4:	e3500000 	cmp	r0, #0
43e015b8:	0affffa2 	beq	43e01448 <_end+0x43b80fbc>
43e015bc:	e5d72001 	ldrb	r2, [r7, #1]
43e015c0:	e3500002 	cmp	r0, #2
43e015c4:	e5cc2001 	strb	r2, [ip, #1]
43e015c8:	1a000030 	bne	43e01690 <_end+0x43b81204>
43e015cc:	e5d72002 	ldrb	r2, [r7, #2]
43e015d0:	e5cc2002 	strb	r2, [ip, #2]
43e015d4:	e28cc002 	add	ip, ip, #2
43e015d8:	eaffff9a 	b	43e01448 <_end+0x43b80fbc>
43e015dc:	e31c0001 	tst	ip, #1
43e015e0:	e062800c 	rsb	r8, r2, ip
43e015e4:	02400001 	subeq	r0, r0, #1
43e015e8:	05d87001 	ldrbeq	r7, [r8, #1]
43e015ec:	02888001 	addeq	r8, r8, #1
43e015f0:	05cc7001 	strbeq	r7, [ip, #1]
43e015f4:	028cc001 	addeq	ip, ip, #1
43e015f8:	e3520002 	cmp	r2, #2
43e015fc:	e24c7001 	sub	r7, ip, #1
43e01600:	e58d7034 	str	r7, [sp, #52]	; 0x34
43e01604:	9a000023 	bls	43e01698 <_end+0x43b8120c>
43e01608:	e2488001 	sub	r8, r8, #1
43e0160c:	e58d8038 	str	r8, [sp, #56]	; 0x38
43e01610:	e1a080a0 	lsr	r8, r0, #1
43e01614:	e58d803c 	str	r8, [sp, #60]	; 0x3c
43e01618:	e59d2038 	ldr	r2, [sp, #56]	; 0x38
43e0161c:	e1a08007 	mov	r8, r7
43e01620:	e59da03c 	ldr	sl, [sp, #60]	; 0x3c
43e01624:	e1a07000 	mov	r7, r0
43e01628:	e1dd04b6 	ldrh	r0, [sp, #70]	; 0x46
43e0162c:	e58d4040 	str	r4, [sp, #64]	; 0x40
43e01630:	e5d24002 	ldrb	r4, [r2, #2]
43e01634:	e25aa001 	subs	sl, sl, #1
43e01638:	e5d2c003 	ldrb	ip, [r2, #3]
43e0163c:	e2822002 	add	r2, r2, #2
43e01640:	e7c70014 	bfi	r0, r4, #0, #8
43e01644:	e7cf041c 	bfi	r0, ip, #8, #8
43e01648:	e1e800b2 	strh	r0, [r8, #2]!
43e0164c:	1afffff7 	bne	43e01630 <_end+0x43b811a4>
43e01650:	e59da03c 	ldr	sl, [sp, #60]	; 0x3c
43e01654:	e59d8038 	ldr	r8, [sp, #56]	; 0x38
43e01658:	e24a2106 	sub	r2, sl, #-2147483647	; 0x80000001
43e0165c:	e1cd04b6 	strh	r0, [sp, #70]	; 0x46
43e01660:	e1a00007 	mov	r0, r7
43e01664:	e59d7034 	ldr	r7, [sp, #52]	; 0x34
43e01668:	e1a02082 	lsl	r2, r2, #1
43e0166c:	e59d4040 	ldr	r4, [sp, #64]	; 0x40
43e01670:	e087c002 	add	ip, r7, r2
43e01674:	e0882002 	add	r2, r8, r2
43e01678:	e28cc003 	add	ip, ip, #3
43e0167c:	e2828003 	add	r8, r2, #3
43e01680:	e3100001 	tst	r0, #1
43e01684:	0affff6f 	beq	43e01448 <_end+0x43b80fbc>
43e01688:	e5d82001 	ldrb	r2, [r8, #1]
43e0168c:	e5cc2001 	strb	r2, [ip, #1]
43e01690:	e28cc001 	add	ip, ip, #1
43e01694:	eaffff6b 	b	43e01448 <_end+0x43b80fbc>
43e01698:	e15c70b1 	ldrh	r7, [ip, #-1]
43e0169c:	e3520001 	cmp	r2, #1
43e016a0:	e1a0a0a0 	lsr	sl, r0, #1
43e016a4:	e59dc034 	ldr	ip, [sp, #52]	; 0x34
43e016a8:	01a02427 	lsreq	r2, r7, #8
43e016ac:	07c77012 	bfieq	r7, r2, #0, #8
43e016b0:	e1a0200a 	mov	r2, sl
43e016b4:	06ff7077 	uxtheq	r7, r7
43e016b8:	e2522001 	subs	r2, r2, #1
43e016bc:	e1ec70b2 	strh	r7, [ip, #2]!
43e016c0:	1afffffc 	bne	43e016b8 <_end+0x43b8122c>
43e016c4:	e59d2034 	ldr	r2, [sp, #52]	; 0x34
43e016c8:	e082c08a 	add	ip, r2, sl, lsl #1
43e016cc:	e28cc001 	add	ip, ip, #1
43e016d0:	eaffffea 	b	43e01680 <_end+0x43b811f4>
43e016d4:	e59d7010 	ldr	r7, [sp, #16]
43e016d8:	e1570008 	cmp	r7, r8
43e016dc:	2a00002c 	bcs	43e01794 <_end+0x43b81308>
43e016e0:	e067a008 	rsb	sl, r7, r8
43e016e4:	e58da034 	str	sl, [sp, #52]	; 0x34
43e016e8:	e59da030 	ldr	sl, [sp, #48]	; 0x30
43e016ec:	e068700a 	rsb	r7, r8, sl
43e016f0:	e59d8034 	ldr	r8, [sp, #52]	; 0x34
43e016f4:	e59da02c 	ldr	sl, [sp, #44]	; 0x2c
43e016f8:	e1500008 	cmp	r0, r8
43e016fc:	e08a7007 	add	r7, sl, r7
43e01700:	9affff94 	bls	43e01558 <_end+0x43b810cc>
43e01704:	e0680000 	rsb	r0, r8, r0
43e01708:	e1a08007 	mov	r8, r7
43e0170c:	e59d7034 	ldr	r7, [sp, #52]	; 0x34
43e01710:	e1a0a00c 	mov	sl, ip
43e01714:	e58d403c 	str	r4, [sp, #60]	; 0x3c
43e01718:	e58d7038 	str	r7, [sp, #56]	; 0x38
43e0171c:	e1a0700c 	mov	r7, ip
43e01720:	e59dc038 	ldr	ip, [sp, #56]	; 0x38
43e01724:	e5f84001 	ldrb	r4, [r8, #1]!
43e01728:	e25cc001 	subs	ip, ip, #1
43e0172c:	e5ea4001 	strb	r4, [sl, #1]!
43e01730:	1afffffb 	bne	43e01724 <_end+0x43b81298>
43e01734:	e59d8010 	ldr	r8, [sp, #16]
43e01738:	e59da034 	ldr	sl, [sp, #52]	; 0x34
43e0173c:	e1580000 	cmp	r8, r0
43e01740:	e59d403c 	ldr	r4, [sp, #60]	; 0x3c
43e01744:	e087c00a 	add	ip, r7, sl
43e01748:	259d702c 	ldrcs	r7, [sp, #44]	; 0x2c
43e0174c:	2affff81 	bcs	43e01558 <_end+0x43b810cc>
43e01750:	e59d7010 	ldr	r7, [sp, #16]
43e01754:	e0680000 	rsb	r0, r8, r0
43e01758:	e59da018 	ldr	sl, [sp, #24]
43e0175c:	e1a0800c 	mov	r8, ip
43e01760:	e58d4038 	str	r4, [sp, #56]	; 0x38
43e01764:	e58d7034 	str	r7, [sp, #52]	; 0x34
43e01768:	e1a0700c 	mov	r7, ip
43e0176c:	e59dc034 	ldr	ip, [sp, #52]	; 0x34
43e01770:	e4da4001 	ldrb	r4, [sl], #1
43e01774:	e25cc001 	subs	ip, ip, #1
43e01778:	e5e84001 	strb	r4, [r8, #1]!
43e0177c:	1afffffb 	bne	43e01770 <_end+0x43b812e4>
43e01780:	e59d8010 	ldr	r8, [sp, #16]
43e01784:	e59d4038 	ldr	r4, [sp, #56]	; 0x38
43e01788:	e087c008 	add	ip, r7, r8
43e0178c:	e062700c 	rsb	r7, r2, ip
43e01790:	eaffff70 	b	43e01558 <_end+0x43b810cc>
43e01794:	e59da010 	ldr	sl, [sp, #16]
43e01798:	e1500008 	cmp	r0, r8
43e0179c:	e068700a 	rsb	r7, r8, sl
43e017a0:	e59da02c 	ldr	sl, [sp, #44]	; 0x2c
43e017a4:	e08a7007 	add	r7, sl, r7
43e017a8:	9affff6a 	bls	43e01558 <_end+0x43b810cc>
43e017ac:	e0680000 	rsb	r0, r8, r0
43e017b0:	e1a0a007 	mov	sl, r7
43e017b4:	e58dc034 	str	ip, [sp, #52]	; 0x34
43e017b8:	e1a07000 	mov	r7, r0
43e017bc:	e1a00008 	mov	r0, r8
43e017c0:	e58d8038 	str	r8, [sp, #56]	; 0x38
43e017c4:	e58d403c 	str	r4, [sp, #60]	; 0x3c
43e017c8:	e58dc040 	str	ip, [sp, #64]	; 0x40
43e017cc:	e5fa4001 	ldrb	r4, [sl, #1]!
43e017d0:	e2500001 	subs	r0, r0, #1
43e017d4:	e5ec4001 	strb	r4, [ip, #1]!
43e017d8:	1afffffb 	bne	43e017cc <_end+0x43b81340>
43e017dc:	e59dc040 	ldr	ip, [sp, #64]	; 0x40
43e017e0:	e1a00007 	mov	r0, r7
43e017e4:	e59d403c 	ldr	r4, [sp, #60]	; 0x3c
43e017e8:	e08cc008 	add	ip, ip, r8
43e017ec:	e062700c 	rsb	r7, r2, ip
43e017f0:	eaffff58 	b	43e01558 <_end+0x43b810cc>
43e017f4:	e0680000 	rsb	r0, r8, r0
43e017f8:	e1a0a007 	mov	sl, r7
43e017fc:	e58dc038 	str	ip, [sp, #56]	; 0x38
43e01800:	e1a07000 	mov	r7, r0
43e01804:	e1a00008 	mov	r0, r8
43e01808:	e58d8034 	str	r8, [sp, #52]	; 0x34
43e0180c:	e58d403c 	str	r4, [sp, #60]	; 0x3c
43e01810:	e58dc040 	str	ip, [sp, #64]	; 0x40
43e01814:	e5fa4001 	ldrb	r4, [sl, #1]!
43e01818:	e2500001 	subs	r0, r0, #1
43e0181c:	e5ec4001 	strb	r4, [ip, #1]!
43e01820:	1afffffb 	bne	43e01814 <_end+0x43b81388>
43e01824:	eaffffec 	b	43e017dc <_end+0x43b81350>
43e01828:	e59d201c 	ldr	r2, [sp, #28]
43e0182c:	e1a0000b 	mov	r0, fp
43e01830:	e59f3018 	ldr	r3, [pc, #24]	; 43e01850 <_end+0x43b813c4>
43e01834:	e08f3003 	add	r3, pc, r3
43e01838:	e58b3018 	str	r3, [fp, #24]
43e0183c:	e3a0301b 	mov	r3, #27
43e01840:	e5823000 	str	r3, [r2]
43e01844:	eafffee0 	b	43e013cc <_end+0x43b80f40>
43e01848:	000050dc 	ldrdeq	r5, [r0], -ip
43e0184c:	0000502c 	andeq	r5, r0, ip, lsr #32
43e01850:	00004c44 	andeq	r4, r0, r4, asr #24
43e01854:	e30a052c 	movw	r0, #42284	; 0xa52c
43e01858:	e12fff1e 	bx	lr
43e0185c:	e2501000 	subs	r1, r0, #0
43e01860:	e52d4004 	push	{r4}		; (str r4, [sp, #-4]!)
43e01864:	0a00001d 	beq	43e018e0 <_end+0x43b81454>
43e01868:	e591301c 	ldr	r3, [r1, #28]
43e0186c:	e3530000 	cmp	r3, #0
43e01870:	0a00001a 	beq	43e018e0 <_end+0x43b81454>
43e01874:	e3a02000 	mov	r2, #0
43e01878:	e3a04001 	mov	r4, #1
43e0187c:	e583201c 	str	r2, [r3, #28]
43e01880:	e283ce52 	add	ip, r3, #1312	; 0x520
43e01884:	e5814028 	str	r4, [r1, #40]	; 0x28
43e01888:	e1a00002 	mov	r0, r2
43e0188c:	e5812014 	str	r2, [r1, #20]
43e01890:	e28cc00c 	add	ip, ip, #12
43e01894:	e5812008 	str	r2, [r1, #8]
43e01898:	e5812018 	str	r2, [r1, #24]
43e0189c:	e5931020 	ldr	r1, [r3, #32]
43e018a0:	e5832000 	str	r2, [r3]
43e018a4:	e1a04114 	lsl	r4, r4, r1
43e018a8:	e5832004 	str	r2, [r3, #4]
43e018ac:	e3a01902 	mov	r1, #32768	; 0x8000
43e018b0:	e583200c 	str	r2, [r3, #12]
43e018b4:	e5831014 	str	r1, [r3, #20]
43e018b8:	e5832034 	str	r2, [r3, #52]	; 0x34
43e018bc:	e5832038 	str	r2, [r3, #56]	; 0x38
43e018c0:	e583c068 	str	ip, [r3, #104]	; 0x68
43e018c4:	e583c04c 	str	ip, [r3, #76]	; 0x4c
43e018c8:	e583c048 	str	ip, [r3, #72]	; 0x48
43e018cc:	e5834024 	str	r4, [r3, #36]	; 0x24
43e018d0:	e583202c 	str	r2, [r3, #44]	; 0x2c
43e018d4:	e5832028 	str	r2, [r3, #40]	; 0x28
43e018d8:	e8bd0010 	pop	{r4}
43e018dc:	e12fff1e 	bx	lr
43e018e0:	e3e00001 	mvn	r0, #1
43e018e4:	eafffffb 	b	43e018d8 <_end+0x43b8144c>
43e018e8:	e2503000 	subs	r3, r0, #0
43e018ec:	0a000013 	beq	43e01940 <_end+0x43b814b4>
43e018f0:	e5932020 	ldr	r2, [r3, #32]
43e018f4:	e3510000 	cmp	r1, #0
43e018f8:	e3a00000 	mov	r0, #0
43e018fc:	b2611000 	rsblt	r1, r1, #0
43e01900:	e5830018 	str	r0, [r3, #24]
43e01904:	a1a00241 	asrge	r0, r1, #4
43e01908:	a2800001 	addge	r0, r0, #1
43e0190c:	e583201c 	str	r2, [r3, #28]
43e01910:	b5820008 	strlt	r0, [r2, #8]
43e01914:	a5820008 	strge	r0, [r2, #8]
43e01918:	e2410008 	sub	r0, r1, #8
43e0191c:	e3500007 	cmp	r0, #7
43e01920:	8a000006 	bhi	43e01940 <_end+0x43b814b4>
43e01924:	e5821020 	str	r1, [r2, #32]
43e01928:	e1a00003 	mov	r0, r3
43e0192c:	e5933020 	ldr	r3, [r3, #32]
43e01930:	e2833c25 	add	r3, r3, #9472	; 0x2500
43e01934:	e283302c 	add	r3, r3, #44	; 0x2c
43e01938:	e5823030 	str	r3, [r2, #48]	; 0x30
43e0193c:	eaffffc6 	b	43e0185c <_end+0x43b813d0>
43e01940:	e3e00001 	mvn	r0, #1
43e01944:	e12fff1e 	bx	lr
43e01948:	e92d4ff0 	push	{r4, r5, r6, r7, r8, r9, sl, fp, lr}
43e0194c:	e2508000 	subs	r8, r0, #0
43e01950:	e24dd054 	sub	sp, sp, #84	; 0x54
43e01954:	e58d1020 	str	r1, [sp, #32]
43e01958:	0a000164 	beq	43e01ef0 <_end+0x43b81a64>
43e0195c:	e598701c 	ldr	r7, [r8, #28]
43e01960:	e3570000 	cmp	r7, #0
43e01964:	0a0004f8 	beq	43e02d4c <_end+0x43b828c0>
43e01968:	e598a000 	ldr	sl, [r8]
43e0196c:	e35a0000 	cmp	sl, #0
43e01970:	0a000486 	beq	43e02b90 <_end+0x43b82704>
43e01974:	e5973000 	ldr	r3, [r7]
43e01978:	e59f2f8c 	ldr	r2, [pc, #3980]	; 43e0290c <_end+0x43b82480>
43e0197c:	e353000b 	cmp	r3, #11
43e01980:	e5976034 	ldr	r6, [r7, #52]	; 0x34
43e01984:	e5974038 	ldr	r4, [r7, #56]	; 0x38
43e01988:	e08f2002 	add	r2, pc, r2
43e0198c:	03a0300c 	moveq	r3, #12
43e01990:	05873000 	streq	r3, [r7]
43e01994:	e598c010 	ldr	ip, [r8, #16]
43e01998:	e2822d26 	add	r2, r2, #2432	; 0x980
43e0199c:	0598a000 	ldreq	sl, [r8]
43e019a0:	e58d2028 	str	r2, [sp, #40]	; 0x28
43e019a4:	e58dc00c 	str	ip, [sp, #12]
43e019a8:	e3a0c000 	mov	ip, #0
43e019ac:	e58dc014 	str	ip, [sp, #20]
43e019b0:	e598c004 	ldr	ip, [r8, #4]
43e019b4:	e59db00c 	ldr	fp, [sp, #12]
43e019b8:	e58d8010 	str	r8, [sp, #16]
43e019bc:	e58dc018 	str	ip, [sp, #24]
43e019c0:	e59fcf48 	ldr	ip, [pc, #3912]	; 43e02910 <_end+0x43b82484>
43e019c4:	e59d5018 	ldr	r5, [sp, #24]
43e019c8:	e08fc00c 	add	ip, pc, ip
43e019cc:	e58dc01c 	str	ip, [sp, #28]
43e019d0:	e598c00c 	ldr	ip, [r8, #12]
43e019d4:	e58dc024 	str	ip, [sp, #36]	; 0x24
43e019d8:	e59dc01c 	ldr	ip, [sp, #28]
43e019dc:	e28ccc01 	add	ip, ip, #256	; 0x100
43e019e0:	e58dc030 	str	ip, [sp, #48]	; 0x30
43e019e4:	e59fcf28 	ldr	ip, [pc, #3880]	; 43e02914 <_end+0x43b82488>
43e019e8:	e08fc00c 	add	ip, pc, ip
43e019ec:	e58dc02c 	str	ip, [sp, #44]	; 0x2c
43e019f0:	e282c024 	add	ip, r2, #36	; 0x24
43e019f4:	e58dc034 	str	ip, [sp, #52]	; 0x34
43e019f8:	e353001c 	cmp	r3, #28
43e019fc:	908ff103 	addls	pc, pc, r3, lsl #2
43e01a00:	ea00013a 	b	43e01ef0 <_end+0x43b81a64>
43e01a04:	ea0001c0 	b	43e0210c <_end+0x43b81c80>
43e01a08:	ea000138 	b	43e01ef0 <_end+0x43b81a64>
43e01a0c:	ea000137 	b	43e01ef0 <_end+0x43b81a64>
43e01a10:	ea000136 	b	43e01ef0 <_end+0x43b81a64>
43e01a14:	ea000135 	b	43e01ef0 <_end+0x43b81a64>
43e01a18:	ea000134 	b	43e01ef0 <_end+0x43b81a64>
43e01a1c:	ea000133 	b	43e01ef0 <_end+0x43b81a64>
43e01a20:	ea000132 	b	43e01ef0 <_end+0x43b81a64>
43e01a24:	ea000131 	b	43e01ef0 <_end+0x43b81a64>
43e01a28:	ea000012 	b	43e01a78 <_end+0x43b815ec>
43e01a2c:	ea00002e 	b	43e01aec <_end+0x43b81660>
43e01a30:	ea000036 	b	43e01b10 <_end+0x43b81684>
43e01a34:	ea000038 	b	43e01b1c <_end+0x43b81690>
43e01a38:	ea000131 	b	43e01f04 <_end+0x43b81a78>
43e01a3c:	ea000150 	b	43e01f84 <_end+0x43b81af8>
43e01a40:	ea00040f 	b	43e02a84 <_end+0x43b825f8>
43e01a44:	ea00016c 	b	43e01ffc <_end+0x43b81b70>
43e01a48:	ea000343 	b	43e0275c <_end+0x43b822d0>
43e01a4c:	ea00039a 	b	43e028bc <_end+0x43b82430>
43e01a50:	ea00005f 	b	43e01bd4 <_end+0x43b81748>
43e01a54:	ea000079 	b	43e01c40 <_end+0x43b817b4>
43e01a58:	ea0000d6 	b	43e01db8 <_end+0x43b8192c>
43e01a5c:	ea0000f7 	b	43e01e40 <_end+0x43b819b4>
43e01a60:	ea0001d1 	b	43e021ac <_end+0x43b81d20>
43e01a64:	ea0001de 	b	43e021e4 <_end+0x43b81d58>
43e01a68:	ea000120 	b	43e01ef0 <_end+0x43b81a64>
43e01a6c:	ea000280 	b	43e02474 <_end+0x43b81fe8>
43e01a70:	ea00038a 	b	43e028a0 <_end+0x43b82414>
43e01a74:	ea00015d 	b	43e01ff0 <_end+0x43b81b64>
43e01a78:	e354001f 	cmp	r4, #31
43e01a7c:	8a00000c 	bhi	43e01ab4 <_end+0x43b81628>
43e01a80:	e3550000 	cmp	r5, #0
43e01a84:	0a000436 	beq	43e02b64 <_end+0x43b826d8>
43e01a88:	e1a0300a 	mov	r3, sl
43e01a8c:	ea000001 	b	43e01a98 <_end+0x43b8160c>
43e01a90:	e3550000 	cmp	r5, #0
43e01a94:	0a000432 	beq	43e02b64 <_end+0x43b826d8>
43e01a98:	e4d32001 	ldrb	r2, [r3], #1
43e01a9c:	e2455001 	sub	r5, r5, #1
43e01aa0:	e0866412 	add	r6, r6, r2, lsl r4
43e01aa4:	e2844008 	add	r4, r4, #8
43e01aa8:	e354001f 	cmp	r4, #31
43e01aac:	e1a0a003 	mov	sl, r3
43e01ab0:	9afffff6 	bls	43e01a90 <_end+0x43b81604>
43e01ab4:	e1a01c26 	lsr	r1, r6, #24
43e01ab8:	e1a03426 	lsr	r3, r6, #8
43e01abc:	e59d8010 	ldr	r8, [sp, #16]
43e01ac0:	e0811c06 	add	r1, r1, r6, lsl #24
43e01ac4:	e2062cff 	and	r2, r6, #65280	; 0xff00
43e01ac8:	e2033cff 	and	r3, r3, #65280	; 0xff00
43e01acc:	e3a06000 	mov	r6, #0
43e01ad0:	e0813003 	add	r3, r1, r3
43e01ad4:	e1a04006 	mov	r4, r6
43e01ad8:	e0833402 	add	r3, r3, r2, lsl #8
43e01adc:	e5873018 	str	r3, [r7, #24]
43e01ae0:	e5883028 	str	r3, [r8, #40]	; 0x28
43e01ae4:	e3a0300a 	mov	r3, #10
43e01ae8:	e5873000 	str	r3, [r7]
43e01aec:	e597300c 	ldr	r3, [r7, #12]
43e01af0:	e3530000 	cmp	r3, #0
43e01af4:	0a000505 	beq	43e02f10 <_end+0x43b82a84>
43e01af8:	e59d8010 	ldr	r8, [sp, #16]
43e01afc:	e3a03001 	mov	r3, #1
43e01b00:	e5873018 	str	r3, [r7, #24]
43e01b04:	e5883028 	str	r3, [r8, #40]	; 0x28
43e01b08:	e3a0300b 	mov	r3, #11
43e01b0c:	e5873000 	str	r3, [r7]
43e01b10:	e59dc020 	ldr	ip, [sp, #32]
43e01b14:	e35c0006 	cmp	ip, #6
43e01b18:	0a000456 	beq	43e02c78 <_end+0x43b827ec>
43e01b1c:	e5973004 	ldr	r3, [r7, #4]
43e01b20:	e3530000 	cmp	r3, #0
43e01b24:	1a000024 	bne	43e01bbc <_end+0x43b81730>
43e01b28:	e3540002 	cmp	r4, #2
43e01b2c:	8a000005 	bhi	43e01b48 <_end+0x43b816bc>
43e01b30:	e3550000 	cmp	r5, #0
43e01b34:	0a000476 	beq	43e02d14 <_end+0x43b82888>
43e01b38:	e4da3001 	ldrb	r3, [sl], #1
43e01b3c:	e2455001 	sub	r5, r5, #1
43e01b40:	e0866413 	add	r6, r6, r3, lsl r4
43e01b44:	e2844008 	add	r4, r4, #8
43e01b48:	e1a020a6 	lsr	r2, r6, #1
43e01b4c:	e2066001 	and	r6, r6, #1
43e01b50:	e2023003 	and	r3, r2, #3
43e01b54:	e5876004 	str	r6, [r7, #4]
43e01b58:	e3530002 	cmp	r3, #2
43e01b5c:	03a0300f 	moveq	r3, #15
43e01b60:	05873000 	streq	r3, [r7]
43e01b64:	0a000011 	beq	43e01bb0 <_end+0x43b81724>
43e01b68:	e3530003 	cmp	r3, #3
43e01b6c:	0a000439 	beq	43e02c58 <_end+0x43b827cc>
43e01b70:	e3530001 	cmp	r3, #1
43e01b74:	13a0300d 	movne	r3, #13
43e01b78:	15873000 	strne	r3, [r7]
43e01b7c:	1a00000b 	bne	43e01bb0 <_end+0x43b81724>
43e01b80:	e59dc030 	ldr	ip, [sp, #48]	; 0x30
43e01b84:	e3a01012 	mov	r1, #18
43e01b88:	e59d801c 	ldr	r8, [sp, #28]
43e01b8c:	e1a03001 	mov	r3, r1
43e01b90:	e5871000 	str	r1, [r7]
43e01b94:	e2880c09 	add	r0, r8, #2304	; 0x900
43e01b98:	e587c048 	str	ip, [r7, #72]	; 0x48
43e01b9c:	e587004c 	str	r0, [r7, #76]	; 0x4c
43e01ba0:	e3a0c009 	mov	ip, #9
43e01ba4:	e3a00005 	mov	r0, #5
43e01ba8:	e587c050 	str	ip, [r7, #80]	; 0x50
43e01bac:	e5870054 	str	r0, [r7, #84]	; 0x54
43e01bb0:	e1a06122 	lsr	r6, r2, #2
43e01bb4:	e2444003 	sub	r4, r4, #3
43e01bb8:	eaffff8e 	b	43e019f8 <_end+0x43b8156c>
43e01bbc:	e2042007 	and	r2, r4, #7
43e01bc0:	e3a03018 	mov	r3, #24
43e01bc4:	e1a06236 	lsr	r6, r6, r2
43e01bc8:	e3c44007 	bic	r4, r4, #7
43e01bcc:	e5873000 	str	r3, [r7]
43e01bd0:	eaffff88 	b	43e019f8 <_end+0x43b8156c>
43e01bd4:	e597c044 	ldr	ip, [r7, #68]	; 0x44
43e01bd8:	e35c0000 	cmp	ip, #0
43e01bdc:	0a000015 	beq	43e01c38 <_end+0x43b817ac>
43e01be0:	e154000c 	cmp	r4, ip
43e01be4:	2a00000c 	bcs	43e01c1c <_end+0x43b81790>
43e01be8:	e3550000 	cmp	r5, #0
43e01bec:	0a000448 	beq	43e02d14 <_end+0x43b82888>
43e01bf0:	e1a0300a 	mov	r3, sl
43e01bf4:	ea000001 	b	43e01c00 <_end+0x43b81774>
43e01bf8:	e3550000 	cmp	r5, #0
43e01bfc:	0a0003d8 	beq	43e02b64 <_end+0x43b826d8>
43e01c00:	e4d32001 	ldrb	r2, [r3], #1
43e01c04:	e2455001 	sub	r5, r5, #1
43e01c08:	e0866412 	add	r6, r6, r2, lsl r4
43e01c0c:	e2844008 	add	r4, r4, #8
43e01c10:	e154000c 	cmp	r4, ip
43e01c14:	e1a0a003 	mov	sl, r3
43e01c18:	3afffff6 	bcc	43e01bf8 <_end+0x43b8176c>
43e01c1c:	e3e03000 	mvn	r3, #0
43e01c20:	e597203c 	ldr	r2, [r7, #60]	; 0x3c
43e01c24:	e1c63c13 	bic	r3, r6, r3, lsl ip
43e01c28:	e06c4004 	rsb	r4, ip, r4
43e01c2c:	e1a06c36 	lsr	r6, r6, ip
43e01c30:	e0823003 	add	r3, r2, r3
43e01c34:	e587303c 	str	r3, [r7, #60]	; 0x3c
43e01c38:	e3a03014 	mov	r3, #20
43e01c3c:	e5873000 	str	r3, [r7]
43e01c40:	e5973054 	ldr	r3, [r7, #84]	; 0x54
43e01c44:	e3e08000 	mvn	r8, #0
43e01c48:	e597104c 	ldr	r1, [r7, #76]	; 0x4c
43e01c4c:	e1e08318 	mvn	r8, r8, lsl r3
43e01c50:	e0063008 	and	r3, r6, r8
43e01c54:	e0812103 	add	r2, r1, r3, lsl #2
43e01c58:	e7d10103 	ldrb	r0, [r1, r3, lsl #2]
43e01c5c:	e5d23001 	ldrb	r3, [r2, #1]
43e01c60:	e1d2c0b2 	ldrh	ip, [r2, #2]
43e01c64:	e1540003 	cmp	r4, r3
43e01c68:	e1a09003 	mov	r9, r3
43e01c6c:	2a000012 	bcs	43e01cbc <_end+0x43b81830>
43e01c70:	e3550000 	cmp	r5, #0
43e01c74:	0a0003ba 	beq	43e02b64 <_end+0x43b826d8>
43e01c78:	e1a0200a 	mov	r2, sl
43e01c7c:	ea000001 	b	43e01c88 <_end+0x43b817fc>
43e01c80:	e3550000 	cmp	r5, #0
43e01c84:	0a0003b6 	beq	43e02b64 <_end+0x43b826d8>
43e01c88:	e4d23001 	ldrb	r3, [r2], #1
43e01c8c:	e2455001 	sub	r5, r5, #1
43e01c90:	e0866413 	add	r6, r6, r3, lsl r4
43e01c94:	e2844008 	add	r4, r4, #8
43e01c98:	e0063008 	and	r3, r6, r8
43e01c9c:	e1a0a002 	mov	sl, r2
43e01ca0:	e081c103 	add	ip, r1, r3, lsl #2
43e01ca4:	e7d10103 	ldrb	r0, [r1, r3, lsl #2]
43e01ca8:	e5dc3001 	ldrb	r3, [ip, #1]
43e01cac:	e1dcc0b2 	ldrh	ip, [ip, #2]
43e01cb0:	e1530004 	cmp	r3, r4
43e01cb4:	e1a09003 	mov	r9, r3
43e01cb8:	8afffff0 	bhi	43e01c80 <_end+0x43b817f4>
43e01cbc:	e31000f0 	tst	r0, #240	; 0xf0
43e01cc0:	1a000030 	bne	43e01d88 <_end+0x43b818fc>
43e01cc4:	e0800003 	add	r0, r0, r3
43e01cc8:	e58d3038 	str	r3, [sp, #56]	; 0x38
43e01ccc:	e3e03000 	mvn	r3, #0
43e01cd0:	e59d8038 	ldr	r8, [sp, #56]	; 0x38
43e01cd4:	e1e03013 	mvn	r3, r3, lsl r0
43e01cd8:	e59d0038 	ldr	r0, [sp, #56]	; 0x38
43e01cdc:	e58d3040 	str	r3, [sp, #64]	; 0x40
43e01ce0:	e0033006 	and	r3, r3, r6
43e01ce4:	e58dc03c 	str	ip, [sp, #60]	; 0x3c
43e01ce8:	e08c3033 	add	r3, ip, r3, lsr r0
43e01cec:	e0812103 	add	r2, r1, r3, lsl #2
43e01cf0:	e7d10103 	ldrb	r0, [r1, r3, lsl #2]
43e01cf4:	e5d23001 	ldrb	r3, [r2, #1]
43e01cf8:	e1d2c0b2 	ldrh	ip, [r2, #2]
43e01cfc:	e0882003 	add	r2, r8, r3
43e01d00:	e1540002 	cmp	r4, r2
43e01d04:	2a00001c 	bcs	43e01d7c <_end+0x43b818f0>
43e01d08:	e3550000 	cmp	r5, #0
43e01d0c:	0a000400 	beq	43e02d14 <_end+0x43b82888>
43e01d10:	e58db044 	str	fp, [sp, #68]	; 0x44
43e01d14:	e1a0800a 	mov	r8, sl
43e01d18:	e58d904c 	str	r9, [sp, #76]	; 0x4c
43e01d1c:	e58d7048 	str	r7, [sp, #72]	; 0x48
43e01d20:	e59d2038 	ldr	r2, [sp, #56]	; 0x38
43e01d24:	e59db03c 	ldr	fp, [sp, #60]	; 0x3c
43e01d28:	e59d9040 	ldr	r9, [sp, #64]	; 0x40
43e01d2c:	ea000001 	b	43e01d38 <_end+0x43b818ac>
43e01d30:	e3550000 	cmp	r5, #0
43e01d34:	0a000401 	beq	43e02d40 <_end+0x43b828b4>
43e01d38:	e4d83001 	ldrb	r3, [r8], #1
43e01d3c:	e2455001 	sub	r5, r5, #1
43e01d40:	e0866413 	add	r6, r6, r3, lsl r4
43e01d44:	e2844008 	add	r4, r4, #8
43e01d48:	e0063009 	and	r3, r6, r9
43e01d4c:	e1a0a008 	mov	sl, r8
43e01d50:	e08b3233 	add	r3, fp, r3, lsr r2
43e01d54:	e081c103 	add	ip, r1, r3, lsl #2
43e01d58:	e7d10103 	ldrb	r0, [r1, r3, lsl #2]
43e01d5c:	e5dc3001 	ldrb	r3, [ip, #1]
43e01d60:	e1dcc0b2 	ldrh	ip, [ip, #2]
43e01d64:	e0837002 	add	r7, r3, r2
43e01d68:	e1570004 	cmp	r7, r4
43e01d6c:	8affffef 	bhi	43e01d30 <_end+0x43b818a4>
43e01d70:	e59db044 	ldr	fp, [sp, #68]	; 0x44
43e01d74:	e59d7048 	ldr	r7, [sp, #72]	; 0x48
43e01d78:	e59d904c 	ldr	r9, [sp, #76]	; 0x4c
43e01d7c:	e59d1038 	ldr	r1, [sp, #56]	; 0x38
43e01d80:	e0694004 	rsb	r4, r9, r4
43e01d84:	e1a06136 	lsr	r6, r6, r1
43e01d88:	e3100040 	tst	r0, #64	; 0x40
43e01d8c:	e1a06336 	lsr	r6, r6, r3
43e01d90:	e0634004 	rsb	r4, r3, r4
43e01d94:	0a000393 	beq	43e02be8 <_end+0x43b8275c>
43e01d98:	e59d8010 	ldr	r8, [sp, #16]
43e01d9c:	e3a0201b 	mov	r2, #27
43e01da0:	e59f1b70 	ldr	r1, [pc, #2928]	; 43e02918 <_end+0x43b8248c>
43e01da4:	e1a03002 	mov	r3, r2
43e01da8:	e08f1001 	add	r1, pc, r1
43e01dac:	e5881018 	str	r1, [r8, #24]
43e01db0:	e5872000 	str	r2, [r7]
43e01db4:	eaffff0f 	b	43e019f8 <_end+0x43b8156c>
43e01db8:	e5970044 	ldr	r0, [r7, #68]	; 0x44
43e01dbc:	e3500000 	cmp	r0, #0
43e01dc0:	05973040 	ldreq	r3, [r7, #64]	; 0x40
43e01dc4:	0a000015 	beq	43e01e20 <_end+0x43b81994>
43e01dc8:	e1540000 	cmp	r4, r0
43e01dcc:	2a00000c 	bcs	43e01e04 <_end+0x43b81978>
43e01dd0:	e3550000 	cmp	r5, #0
43e01dd4:	0a0003ce 	beq	43e02d14 <_end+0x43b82888>
43e01dd8:	e1a0300a 	mov	r3, sl
43e01ddc:	ea000001 	b	43e01de8 <_end+0x43b8195c>
43e01de0:	e3550000 	cmp	r5, #0
43e01de4:	0a00035e 	beq	43e02b64 <_end+0x43b826d8>
43e01de8:	e4d32001 	ldrb	r2, [r3], #1
43e01dec:	e2455001 	sub	r5, r5, #1
43e01df0:	e0866412 	add	r6, r6, r2, lsl r4
43e01df4:	e2844008 	add	r4, r4, #8
43e01df8:	e1540000 	cmp	r4, r0
43e01dfc:	e1a0a003 	mov	sl, r3
43e01e00:	3afffff6 	bcc	43e01de0 <_end+0x43b81954>
43e01e04:	e3e02000 	mvn	r2, #0
43e01e08:	e5973040 	ldr	r3, [r7, #64]	; 0x40
43e01e0c:	e1c62012 	bic	r2, r6, r2, lsl r0
43e01e10:	e0604004 	rsb	r4, r0, r4
43e01e14:	e1a06036 	lsr	r6, r6, r0
43e01e18:	e0823003 	add	r3, r2, r3
43e01e1c:	e5873040 	str	r3, [r7, #64]	; 0x40
43e01e20:	e5972028 	ldr	r2, [r7, #40]	; 0x28
43e01e24:	e59d800c 	ldr	r8, [sp, #12]
43e01e28:	e08b2002 	add	r2, fp, r2
43e01e2c:	e0682002 	rsb	r2, r8, r2
43e01e30:	e1520003 	cmp	r2, r3
43e01e34:	23a03016 	movcs	r3, #22
43e01e38:	25873000 	strcs	r3, [r7]
43e01e3c:	3a000361 	bcc	43e02bc8 <_end+0x43b8273c>
43e01e40:	e59d800c 	ldr	r8, [sp, #12]
43e01e44:	e3580000 	cmp	r8, #0
43e01e48:	0a0003b1 	beq	43e02d14 <_end+0x43b82888>
43e01e4c:	e59d800c 	ldr	r8, [sp, #12]
43e01e50:	e5971040 	ldr	r1, [r7, #64]	; 0x40
43e01e54:	e068c00b 	rsb	ip, r8, fp
43e01e58:	e15c0001 	cmp	ip, r1
43e01e5c:	2a000351 	bcs	43e02ba8 <_end+0x43b8271c>
43e01e60:	e597302c 	ldr	r3, [r7, #44]	; 0x2c
43e01e64:	e06cc001 	rsb	ip, ip, r1
43e01e68:	e597003c 	ldr	r0, [r7, #60]	; 0x3c
43e01e6c:	e15c0003 	cmp	ip, r3
43e01e70:	8063c00c 	rsbhi	ip, r3, ip
43e01e74:	906c3003 	rsbls	r3, ip, r3
43e01e78:	85972024 	ldrhi	r2, [r7, #36]	; 0x24
43e01e7c:	85973030 	ldrhi	r3, [r7, #48]	; 0x30
43e01e80:	95972030 	ldrls	r2, [r7, #48]	; 0x30
43e01e84:	806c2002 	rsbhi	r2, ip, r2
43e01e88:	e15c0000 	cmp	ip, r0
43e01e8c:	21a0c000 	movcs	ip, r0
43e01e90:	e0821003 	add	r1, r2, r3
43e01e94:	e59d800c 	ldr	r8, [sp, #12]
43e01e98:	e2411001 	sub	r1, r1, #1
43e01e9c:	e59d2024 	ldr	r2, [sp, #36]	; 0x24
43e01ea0:	e15c0008 	cmp	ip, r8
43e01ea4:	21a0c008 	movcs	ip, r8
43e01ea8:	e06c8008 	rsb	r8, ip, r8
43e01eac:	e06c0000 	rsb	r0, ip, r0
43e01eb0:	e1a0300c 	mov	r3, ip
43e01eb4:	e58d800c 	str	r8, [sp, #12]
43e01eb8:	e587003c 	str	r0, [r7, #60]	; 0x3c
43e01ebc:	e5f10001 	ldrb	r0, [r1, #1]!
43e01ec0:	e2533001 	subs	r3, r3, #1
43e01ec4:	e4c20001 	strb	r0, [r2], #1
43e01ec8:	1afffffb 	bne	43e01ebc <_end+0x43b81a30>
43e01ecc:	e597303c 	ldr	r3, [r7, #60]	; 0x3c
43e01ed0:	e59d8024 	ldr	r8, [sp, #36]	; 0x24
43e01ed4:	e3530000 	cmp	r3, #0
43e01ed8:	e088800c 	add	r8, r8, ip
43e01edc:	e58d8024 	str	r8, [sp, #36]	; 0x24
43e01ee0:	03a03012 	moveq	r3, #18
43e01ee4:	15973000 	ldrne	r3, [r7]
43e01ee8:	05873000 	streq	r3, [r7]
43e01eec:	eafffec1 	b	43e019f8 <_end+0x43b8156c>
43e01ef0:	e3e08001 	mvn	r8, #1
43e01ef4:	e58d8014 	str	r8, [sp, #20]
43e01ef8:	e59d0014 	ldr	r0, [sp, #20]
43e01efc:	e28dd054 	add	sp, sp, #84	; 0x54
43e01f00:	e8bd8ff0 	pop	{r4, r5, r6, r7, r8, r9, sl, fp, pc}
43e01f04:	e2043007 	and	r3, r4, #7
43e01f08:	e3c44007 	bic	r4, r4, #7
43e01f0c:	e354001f 	cmp	r4, #31
43e01f10:	e1a06336 	lsr	r6, r6, r3
43e01f14:	8a00000c 	bhi	43e01f4c <_end+0x43b81ac0>
43e01f18:	e3550000 	cmp	r5, #0
43e01f1c:	0a00037c 	beq	43e02d14 <_end+0x43b82888>
43e01f20:	e1a0300a 	mov	r3, sl
43e01f24:	ea000001 	b	43e01f30 <_end+0x43b81aa4>
43e01f28:	e3550000 	cmp	r5, #0
43e01f2c:	0a00030c 	beq	43e02b64 <_end+0x43b826d8>
43e01f30:	e4d32001 	ldrb	r2, [r3], #1
43e01f34:	e2455001 	sub	r5, r5, #1
43e01f38:	e0866412 	add	r6, r6, r2, lsl r4
43e01f3c:	e2844008 	add	r4, r4, #8
43e01f40:	e354001f 	cmp	r4, #31
43e01f44:	e1a0a003 	mov	sl, r3
43e01f48:	9afffff6 	bls	43e01f28 <_end+0x43b81a9c>
43e01f4c:	e1a02826 	lsr	r2, r6, #16
43e01f50:	e6ff3076 	uxth	r3, r6
43e01f54:	e2222cff 	eor	r2, r2, #65280	; 0xff00
43e01f58:	e22220ff 	eor	r2, r2, #255	; 0xff
43e01f5c:	e1530002 	cmp	r3, r2
43e01f60:	0a00038d 	beq	43e02d9c <_end+0x43b82910>
43e01f64:	e59d8010 	ldr	r8, [sp, #16]
43e01f68:	e3a0201b 	mov	r2, #27
43e01f6c:	e59f19a8 	ldr	r1, [pc, #2472]	; 43e0291c <_end+0x43b82490>
43e01f70:	e1a03002 	mov	r3, r2
43e01f74:	e08f1001 	add	r1, pc, r1
43e01f78:	e5881018 	str	r1, [r8, #24]
43e01f7c:	e5872000 	str	r2, [r7]
43e01f80:	eafffe9c 	b	43e019f8 <_end+0x43b8156c>
43e01f84:	e597303c 	ldr	r3, [r7, #60]	; 0x3c
43e01f88:	e3530000 	cmp	r3, #0
43e01f8c:	0a00030a 	beq	43e02bbc <_end+0x43b82730>
43e01f90:	e59d800c 	ldr	r8, [sp, #12]
43e01f94:	e1550003 	cmp	r5, r3
43e01f98:	31a03005 	movcc	r3, r5
43e01f9c:	e1530008 	cmp	r3, r8
43e01fa0:	31a08003 	movcc	r8, r3
43e01fa4:	e3580000 	cmp	r8, #0
43e01fa8:	0a000359 	beq	43e02d14 <_end+0x43b82888>
43e01fac:	e1a0100a 	mov	r1, sl
43e01fb0:	e59d0024 	ldr	r0, [sp, #36]	; 0x24
43e01fb4:	e1a02008 	mov	r2, r8
43e01fb8:	e0685005 	rsb	r5, r8, r5
43e01fbc:	eb0005a3 	bl	43e03650 <_end+0x43b831c4>
43e01fc0:	e59dc00c 	ldr	ip, [sp, #12]
43e01fc4:	e597303c 	ldr	r3, [r7, #60]	; 0x3c
43e01fc8:	e08aa008 	add	sl, sl, r8
43e01fcc:	e068c00c 	rsb	ip, r8, ip
43e01fd0:	e58dc00c 	str	ip, [sp, #12]
43e01fd4:	e59dc024 	ldr	ip, [sp, #36]	; 0x24
43e01fd8:	e0683003 	rsb	r3, r8, r3
43e01fdc:	e587303c 	str	r3, [r7, #60]	; 0x3c
43e01fe0:	e08cc008 	add	ip, ip, r8
43e01fe4:	e5973000 	ldr	r3, [r7]
43e01fe8:	e58dc024 	str	ip, [sp, #36]	; 0x24
43e01fec:	eafffe81 	b	43e019f8 <_end+0x43b8156c>
43e01ff0:	e3e03003 	mvn	r3, #3
43e01ff4:	e58d3014 	str	r3, [sp, #20]
43e01ff8:	eaffffbe 	b	43e01ef8 <_end+0x43b81a6c>
43e01ffc:	e5971058 	ldr	r1, [r7, #88]	; 0x58
43e02000:	e5973064 	ldr	r3, [r7, #100]	; 0x64
43e02004:	e1510003 	cmp	r1, r3
43e02008:	9a000016 	bls	43e02068 <_end+0x43b81bdc>
43e0200c:	e59f290c 	ldr	r2, [pc, #2316]	; 43e02920 <_end+0x43b82494>
43e02010:	e08f2002 	add	r2, pc, r2
43e02014:	e0822083 	add	r2, r2, r3, lsl #1
43e02018:	e2822e97 	add	r2, r2, #2416	; 0x970
43e0201c:	e282200e 	add	r2, r2, #14
43e02020:	e3540002 	cmp	r4, #2
43e02024:	8a000005 	bhi	43e02040 <_end+0x43b81bb4>
43e02028:	e3550000 	cmp	r5, #0
43e0202c:	0a0002cc 	beq	43e02b64 <_end+0x43b826d8>
43e02030:	e4da0001 	ldrb	r0, [sl], #1
43e02034:	e2455001 	sub	r5, r5, #1
43e02038:	e0866410 	add	r6, r6, r0, lsl r4
43e0203c:	e2844008 	add	r4, r4, #8
43e02040:	e1f200b2 	ldrh	r0, [r2, #2]!
43e02044:	e2833001 	add	r3, r3, #1
43e02048:	e1530001 	cmp	r3, r1
43e0204c:	e206c007 	and	ip, r6, #7
43e02050:	e2444003 	sub	r4, r4, #3
43e02054:	e1a061a6 	lsr	r6, r6, #3
43e02058:	e0870080 	add	r0, r7, r0, lsl #1
43e0205c:	e1c0c6bc 	strh	ip, [r0, #108]	; 0x6c
43e02060:	e5873064 	str	r3, [r7, #100]	; 0x64
43e02064:	3affffed 	bcc	43e02020 <_end+0x43b81b94>
43e02068:	e3530012 	cmp	r3, #18
43e0206c:	8a00000c 	bhi	43e020a4 <_end+0x43b81c18>
43e02070:	e2433001 	sub	r3, r3, #1
43e02074:	e59d8028 	ldr	r8, [sp, #40]	; 0x28
43e02078:	e59d0034 	ldr	r0, [sp, #52]	; 0x34
43e0207c:	e3a01000 	mov	r1, #0
43e02080:	e0883083 	add	r3, r8, r3, lsl #1
43e02084:	e1f320b2 	ldrh	r2, [r3, #2]!
43e02088:	e2822034 	add	r2, r2, #52	; 0x34
43e0208c:	e1530000 	cmp	r3, r0
43e02090:	e0872082 	add	r2, r7, r2, lsl #1
43e02094:	e1c210b4 	strh	r1, [r2, #4]
43e02098:	1afffff9 	bne	43e02084 <_end+0x43b81bf8>
43e0209c:	e3a03013 	mov	r3, #19
43e020a0:	e5873064 	str	r3, [r7, #100]	; 0x64
43e020a4:	e2873e52 	add	r3, r7, #1312	; 0x520
43e020a8:	e3a02007 	mov	r2, #7
43e020ac:	e283300c 	add	r3, r3, #12
43e020b0:	e5872050 	str	r2, [r7, #80]	; 0x50
43e020b4:	e5873068 	str	r3, [r7, #104]	; 0x68
43e020b8:	e3a00000 	mov	r0, #0
43e020bc:	e5873048 	str	r3, [r7, #72]	; 0x48
43e020c0:	e287106c 	add	r1, r7, #108	; 0x6c
43e020c4:	e3a02013 	mov	r2, #19
43e020c8:	e2873068 	add	r3, r7, #104	; 0x68
43e020cc:	e287e050 	add	lr, r7, #80	; 0x50
43e020d0:	e287cfbb 	add	ip, r7, #748	; 0x2ec
43e020d4:	e58de000 	str	lr, [sp]
43e020d8:	e58dc004 	str	ip, [sp, #4]
43e020dc:	ebfffad4 	bl	43e00c34 <_end+0x43b807a8>
43e020e0:	e3500000 	cmp	r0, #0
43e020e4:	e58d0014 	str	r0, [sp, #20]
43e020e8:	0a0003b3 	beq	43e02fbc <_end+0x43b82b30>
43e020ec:	e59dc010 	ldr	ip, [sp, #16]
43e020f0:	e3a0201b 	mov	r2, #27
43e020f4:	e59f1828 	ldr	r1, [pc, #2088]	; 43e02924 <_end+0x43b82498>
43e020f8:	e1a03002 	mov	r3, r2
43e020fc:	e08f1001 	add	r1, pc, r1
43e02100:	e58c1018 	str	r1, [ip, #24]
43e02104:	e5872000 	str	r2, [r7]
43e02108:	eafffe3a 	b	43e019f8 <_end+0x43b8156c>
43e0210c:	e5973008 	ldr	r3, [r7, #8]
43e02110:	e3530000 	cmp	r3, #0
43e02114:	03a0300c 	moveq	r3, #12
43e02118:	05873000 	streq	r3, [r7]
43e0211c:	0afffe35 	beq	43e019f8 <_end+0x43b8156c>
43e02120:	e354000f 	cmp	r4, #15
43e02124:	8a00000c 	bhi	43e0215c <_end+0x43b81cd0>
43e02128:	e3550000 	cmp	r5, #0
43e0212c:	0a00028c 	beq	43e02b64 <_end+0x43b826d8>
43e02130:	e1a0300a 	mov	r3, sl
43e02134:	ea000001 	b	43e02140 <_end+0x43b81cb4>
43e02138:	e3550000 	cmp	r5, #0
43e0213c:	0a000288 	beq	43e02b64 <_end+0x43b826d8>
43e02140:	e4d32001 	ldrb	r2, [r3], #1
43e02144:	e2455001 	sub	r5, r5, #1
43e02148:	e0866412 	add	r6, r6, r2, lsl r4
43e0214c:	e2844008 	add	r4, r4, #8
43e02150:	e354000f 	cmp	r4, #15
43e02154:	e1a0a003 	mov	sl, r3
43e02158:	9afffff6 	bls	43e02138 <_end+0x43b81cac>
43e0215c:	e1a01c06 	lsl	r1, r6, #24
43e02160:	e1a03426 	lsr	r3, r6, #8
43e02164:	e3012085 	movw	r2, #4229	; 0x1085
43e02168:	e3402842 	movt	r2, #2114	; 0x842
43e0216c:	e0833821 	add	r3, r3, r1, lsr #16
43e02170:	e0820392 	umull	r0, r2, r2, r3
43e02174:	e0621003 	rsb	r1, r2, r3
43e02178:	e08220a1 	add	r2, r2, r1, lsr #1
43e0217c:	e1a02222 	lsr	r2, r2, #4
43e02180:	e0622282 	rsb	r2, r2, r2, lsl #5
43e02184:	e0533002 	subs	r3, r3, r2
43e02188:	0a0002f8 	beq	43e02d70 <_end+0x43b828e4>
43e0218c:	e59d8010 	ldr	r8, [sp, #16]
43e02190:	e3a0201b 	mov	r2, #27
43e02194:	e59f178c 	ldr	r1, [pc, #1932]	; 43e02928 <_end+0x43b8249c>
43e02198:	e1a03002 	mov	r3, r2
43e0219c:	e08f1001 	add	r1, pc, r1
43e021a0:	e5881018 	str	r1, [r8, #24]
43e021a4:	e5872000 	str	r2, [r7]
43e021a8:	eafffe12 	b	43e019f8 <_end+0x43b8156c>
43e021ac:	e59dc00c 	ldr	ip, [sp, #12]
43e021b0:	e35c0000 	cmp	ip, #0
43e021b4:	0a00026a 	beq	43e02b64 <_end+0x43b826d8>
43e021b8:	e59dc024 	ldr	ip, [sp, #36]	; 0x24
43e021bc:	e3a02012 	mov	r2, #18
43e021c0:	e597103c 	ldr	r1, [r7, #60]	; 0x3c
43e021c4:	e1a03002 	mov	r3, r2
43e021c8:	e59d800c 	ldr	r8, [sp, #12]
43e021cc:	e4cc1001 	strb	r1, [ip], #1
43e021d0:	e2488001 	sub	r8, r8, #1
43e021d4:	e58dc024 	str	ip, [sp, #36]	; 0x24
43e021d8:	e58d800c 	str	r8, [sp, #12]
43e021dc:	e5872000 	str	r2, [r7]
43e021e0:	eafffe04 	b	43e019f8 <_end+0x43b8156c>
43e021e4:	e5973008 	ldr	r3, [r7, #8]
43e021e8:	e3530000 	cmp	r3, #0
43e021ec:	0a0003a0 	beq	43e03074 <_end+0x43b82be8>
43e021f0:	e354001f 	cmp	r4, #31
43e021f4:	8a00000c 	bhi	43e0222c <_end+0x43b81da0>
43e021f8:	e3550000 	cmp	r5, #0
43e021fc:	0a000258 	beq	43e02b64 <_end+0x43b826d8>
43e02200:	e1a0300a 	mov	r3, sl
43e02204:	ea000001 	b	43e02210 <_end+0x43b81d84>
43e02208:	e3550000 	cmp	r5, #0
43e0220c:	0a000254 	beq	43e02b64 <_end+0x43b826d8>
43e02210:	e4d32001 	ldrb	r2, [r3], #1
43e02214:	e2455001 	sub	r5, r5, #1
43e02218:	e0866412 	add	r6, r6, r2, lsl r4
43e0221c:	e2844008 	add	r4, r4, #8
43e02220:	e354001f 	cmp	r4, #31
43e02224:	e1a0a003 	mov	sl, r3
43e02228:	9afffff6 	bls	43e02208 <_end+0x43b81d7c>
43e0222c:	e59d8010 	ldr	r8, [sp, #16]
43e02230:	e59dc00c 	ldr	ip, [sp, #12]
43e02234:	e5983014 	ldr	r3, [r8, #20]
43e02238:	e06c800b 	rsb	r8, ip, fp
43e0223c:	e59dc010 	ldr	ip, [sp, #16]
43e02240:	e3580000 	cmp	r8, #0
43e02244:	e0833008 	add	r3, r3, r8
43e02248:	e58c3014 	str	r3, [ip, #20]
43e0224c:	e597301c 	ldr	r3, [r7, #28]
43e02250:	e0833008 	add	r3, r3, r8
43e02254:	e587301c 	str	r3, [r7, #28]
43e02258:	0a000072 	beq	43e02428 <_end+0x43b81f9c>
43e0225c:	e59dc024 	ldr	ip, [sp, #36]	; 0x24
43e02260:	e5979018 	ldr	r9, [r7, #24]
43e02264:	e05c2008 	subs	r2, ip, r8
43e02268:	03a09001 	moveq	r9, #1
43e0226c:	0a00006a 	beq	43e0241c <_end+0x43b81f90>
43e02270:	e3083071 	movw	r3, #32881	; 0x8071
43e02274:	e6ffb079 	uxth	fp, r9
43e02278:	e3483007 	movt	r3, #32775	; 0x8007
43e0227c:	e1a09829 	lsr	r9, r9, #16
43e02280:	e58d5038 	str	r5, [sp, #56]	; 0x38
43e02284:	e58d7044 	str	r7, [sp, #68]	; 0x44
43e02288:	e1a05009 	mov	r5, r9
43e0228c:	e1a07002 	mov	r7, r2
43e02290:	e1a0900a 	mov	r9, sl
43e02294:	e1a0a003 	mov	sl, r3
43e02298:	e58d603c 	str	r6, [sp, #60]	; 0x3c
43e0229c:	e58d4040 	str	r4, [sp, #64]	; 0x40
43e022a0:	e30165b0 	movw	r6, #5552	; 0x15b0
43e022a4:	e1580006 	cmp	r8, r6
43e022a8:	31a06008 	movcc	r6, r8
43e022ac:	e356000f 	cmp	r6, #15
43e022b0:	e0668008 	rsb	r8, r6, r8
43e022b4:	e1a01006 	mov	r1, r6
43e022b8:	da00003a 	ble	43e023a8 <_end+0x43b81f1c>
43e022bc:	e1a02006 	mov	r2, r6
43e022c0:	e1a03007 	mov	r3, r7
43e022c4:	e5d30000 	ldrb	r0, [r3]
43e022c8:	e2422010 	sub	r2, r2, #16
43e022cc:	e5d31001 	ldrb	r1, [r3, #1]
43e022d0:	e352000f 	cmp	r2, #15
43e022d4:	e080b00b 	add	fp, r0, fp
43e022d8:	e5d34002 	ldrb	r4, [r3, #2]
43e022dc:	e08b1001 	add	r1, fp, r1
43e022e0:	e08b5005 	add	r5, fp, r5
43e022e4:	e5d3c003 	ldrb	ip, [r3, #3]
43e022e8:	e0814004 	add	r4, r1, r4
43e022ec:	e5d30004 	ldrb	r0, [r3, #4]
43e022f0:	e0855001 	add	r5, r5, r1
43e022f4:	e084c00c 	add	ip, r4, ip
43e022f8:	e5d31005 	ldrb	r1, [r3, #5]
43e022fc:	e0855004 	add	r5, r5, r4
43e02300:	e08c0000 	add	r0, ip, r0
43e02304:	e5d34006 	ldrb	r4, [r3, #6]
43e02308:	e085500c 	add	r5, r5, ip
43e0230c:	e0801001 	add	r1, r0, r1
43e02310:	e5d3c007 	ldrb	ip, [r3, #7]
43e02314:	e0855000 	add	r5, r5, r0
43e02318:	e0814004 	add	r4, r1, r4
43e0231c:	e5d30008 	ldrb	r0, [r3, #8]
43e02320:	e0855001 	add	r5, r5, r1
43e02324:	e084c00c 	add	ip, r4, ip
43e02328:	e5d31009 	ldrb	r1, [r3, #9]
43e0232c:	e0855004 	add	r5, r5, r4
43e02330:	e08c0000 	add	r0, ip, r0
43e02334:	e5d3400a 	ldrb	r4, [r3, #10]
43e02338:	e085500c 	add	r5, r5, ip
43e0233c:	e0801001 	add	r1, r0, r1
43e02340:	e5d3c00b 	ldrb	ip, [r3, #11]
43e02344:	e0855000 	add	r5, r5, r0
43e02348:	e0814004 	add	r4, r1, r4
43e0234c:	e0855001 	add	r5, r5, r1
43e02350:	e5d3000c 	ldrb	r0, [r3, #12]
43e02354:	e084c00c 	add	ip, r4, ip
43e02358:	e5d3100d 	ldrb	r1, [r3, #13]
43e0235c:	e0854004 	add	r4, r5, r4
43e02360:	e08c0000 	add	r0, ip, r0
43e02364:	e5d3500e 	ldrb	r5, [r3, #14]
43e02368:	e084400c 	add	r4, r4, ip
43e0236c:	e0801001 	add	r1, r0, r1
43e02370:	e5d3b00f 	ldrb	fp, [r3, #15]
43e02374:	e0844000 	add	r4, r4, r0
43e02378:	e0815005 	add	r5, r1, r5
43e0237c:	e0844001 	add	r4, r4, r1
43e02380:	e085b00b 	add	fp, r5, fp
43e02384:	e0845005 	add	r5, r4, r5
43e02388:	e2833010 	add	r3, r3, #16
43e0238c:	e085500b 	add	r5, r5, fp
43e02390:	caffffcb 	bgt	43e022c4 <_end+0x43b81e38>
43e02394:	e2461010 	sub	r1, r6, #16
43e02398:	e1a03221 	lsr	r3, r1, #4
43e0239c:	e2832001 	add	r2, r3, #1
43e023a0:	e0411203 	sub	r1, r1, r3, lsl #4
43e023a4:	e0877202 	add	r7, r7, r2, lsl #4
43e023a8:	e3510000 	cmp	r1, #0
43e023ac:	0a000007 	beq	43e023d0 <_end+0x43b81f44>
43e023b0:	e1a03001 	mov	r3, r1
43e023b4:	e1a02007 	mov	r2, r7
43e023b8:	e4d20001 	ldrb	r0, [r2], #1
43e023bc:	e2533001 	subs	r3, r3, #1
43e023c0:	e08bb000 	add	fp, fp, r0
43e023c4:	e085500b 	add	r5, r5, fp
43e023c8:	1afffffa 	bne	43e023b8 <_end+0x43b81f2c>
43e023cc:	e0877001 	add	r7, r7, r1
43e023d0:	e0820b9a 	umull	r0, r2, sl, fp
43e023d4:	e3580000 	cmp	r8, #0
43e023d8:	e083159a 	umull	r1, r3, sl, r5
43e023dc:	e1a027a2 	lsr	r2, r2, #15
43e023e0:	e0621602 	rsb	r1, r2, r2, lsl #12
43e023e4:	e1a037a3 	lsr	r3, r3, #15
43e023e8:	e0822201 	add	r2, r2, r1, lsl #4
43e023ec:	e0631603 	rsb	r1, r3, r3, lsl #12
43e023f0:	e062b00b 	rsb	fp, r2, fp
43e023f4:	e0833201 	add	r3, r3, r1, lsl #4
43e023f8:	e0635005 	rsb	r5, r3, r5
43e023fc:	1affffa7 	bne	43e022a0 <_end+0x43b81e14>
43e02400:	e1a0a009 	mov	sl, r9
43e02404:	e59d603c 	ldr	r6, [sp, #60]	; 0x3c
43e02408:	e1a09005 	mov	r9, r5
43e0240c:	e59d4040 	ldr	r4, [sp, #64]	; 0x40
43e02410:	e59d7044 	ldr	r7, [sp, #68]	; 0x44
43e02414:	e18b9809 	orr	r9, fp, r9, lsl #16
43e02418:	e59d5038 	ldr	r5, [sp, #56]	; 0x38
43e0241c:	e59d8010 	ldr	r8, [sp, #16]
43e02420:	e5879018 	str	r9, [r7, #24]
43e02424:	e5889028 	str	r9, [r8, #40]	; 0x28
43e02428:	e1a02c26 	lsr	r2, r6, #24
43e0242c:	e1a03426 	lsr	r3, r6, #8
43e02430:	e2033cff 	and	r3, r3, #65280	; 0xff00
43e02434:	e0822c06 	add	r2, r2, r6, lsl #24
43e02438:	e2061cff 	and	r1, r6, #65280	; 0xff00
43e0243c:	e0822003 	add	r2, r2, r3
43e02440:	e5973018 	ldr	r3, [r7, #24]
43e02444:	e0822401 	add	r2, r2, r1, lsl #8
43e02448:	e1520003 	cmp	r2, r3
43e0244c:	0a000320 	beq	43e030d4 <_end+0x43b82c48>
43e02450:	e59dc010 	ldr	ip, [sp, #16]
43e02454:	e3a0201b 	mov	r2, #27
43e02458:	e59f14cc 	ldr	r1, [pc, #1228]	; 43e0292c <_end+0x43b824a0>
43e0245c:	e1a03002 	mov	r3, r2
43e02460:	e59db00c 	ldr	fp, [sp, #12]
43e02464:	e08f1001 	add	r1, pc, r1
43e02468:	e58c1018 	str	r1, [ip, #24]
43e0246c:	e5872000 	str	r2, [r7]
43e02470:	eafffd60 	b	43e019f8 <_end+0x43b8156c>
43e02474:	e3a0c000 	mov	ip, #0
43e02478:	e59d8010 	ldr	r8, [sp, #16]
43e0247c:	e3a03001 	mov	r3, #1
43e02480:	e58dc01c 	str	ip, [sp, #28]
43e02484:	e58d3014 	str	r3, [sp, #20]
43e02488:	e58dc010 	str	ip, [sp, #16]
43e0248c:	e59dc024 	ldr	ip, [sp, #36]	; 0x24
43e02490:	e588a000 	str	sl, [r8]
43e02494:	e5885004 	str	r5, [r8, #4]
43e02498:	e588c00c 	str	ip, [r8, #12]
43e0249c:	e59dc00c 	ldr	ip, [sp, #12]
43e024a0:	e588c010 	str	ip, [r8, #16]
43e024a4:	e5973024 	ldr	r3, [r7, #36]	; 0x24
43e024a8:	e5876034 	str	r6, [r7, #52]	; 0x34
43e024ac:	e3530000 	cmp	r3, #0
43e024b0:	e5874038 	str	r4, [r7, #56]	; 0x38
43e024b4:	1a000005 	bne	43e024d0 <_end+0x43b82044>
43e024b8:	e5973000 	ldr	r3, [r7]
43e024bc:	e3530017 	cmp	r3, #23
43e024c0:	e5983010 	ldr	r3, [r8, #16]
43e024c4:	8a000005 	bhi	43e024e0 <_end+0x43b82054>
43e024c8:	e153000b 	cmp	r3, fp
43e024cc:	0a000003 	beq	43e024e0 <_end+0x43b82054>
43e024d0:	e1a00008 	mov	r0, r8
43e024d4:	e1a0100b 	mov	r1, fp
43e024d8:	ebfff9a3 	bl	43e00b6c <_end+0x43b806e0>
43e024dc:	e5983010 	ldr	r3, [r8, #16]
43e024e0:	e5981004 	ldr	r1, [r8, #4]
43e024e4:	e063300b 	rsb	r3, r3, fp
43e024e8:	e59dc018 	ldr	ip, [sp, #24]
43e024ec:	e58d300c 	str	r3, [sp, #12]
43e024f0:	e5982008 	ldr	r2, [r8, #8]
43e024f4:	e061100c 	rsb	r1, r1, ip
43e024f8:	e5983014 	ldr	r3, [r8, #20]
43e024fc:	e59d000c 	ldr	r0, [sp, #12]
43e02500:	e0822001 	add	r2, r2, r1
43e02504:	e5882008 	str	r2, [r8, #8]
43e02508:	e0833000 	add	r3, r3, r0
43e0250c:	e5883014 	str	r3, [r8, #20]
43e02510:	e5972008 	ldr	r2, [r7, #8]
43e02514:	e597301c 	ldr	r3, [r7, #28]
43e02518:	e3500000 	cmp	r0, #0
43e0251c:	13520000 	cmpne	r2, #0
43e02520:	e58d1018 	str	r1, [sp, #24]
43e02524:	e0833000 	add	r3, r3, r0
43e02528:	e587301c 	str	r3, [r7, #28]
43e0252c:	0a000067 	beq	43e026d0 <_end+0x43b82244>
43e02530:	e598a00c 	ldr	sl, [r8, #12]
43e02534:	e5975018 	ldr	r5, [r7, #24]
43e02538:	e05aa000 	subs	sl, sl, r0
43e0253c:	03a05001 	moveq	r5, #1
43e02540:	0a000060 	beq	43e026c8 <_end+0x43b8223c>
43e02544:	e3083071 	movw	r3, #32881	; 0x8071
43e02548:	e3483007 	movt	r3, #32775	; 0x8007
43e0254c:	e6ffb075 	uxth	fp, r5
43e02550:	e1a05825 	lsr	r5, r5, #16
43e02554:	e58d7024 	str	r7, [sp, #36]	; 0x24
43e02558:	e1a09000 	mov	r9, r0
43e0255c:	e1a07003 	mov	r7, r3
43e02560:	e30165b0 	movw	r6, #5552	; 0x15b0
43e02564:	e1590006 	cmp	r9, r6
43e02568:	31a06009 	movcc	r6, r9
43e0256c:	e356000f 	cmp	r6, #15
43e02570:	e0669009 	rsb	r9, r6, r9
43e02574:	e1a01006 	mov	r1, r6
43e02578:	da00003a 	ble	43e02668 <_end+0x43b821dc>
43e0257c:	e1a02006 	mov	r2, r6
43e02580:	e1a0300a 	mov	r3, sl
43e02584:	e5d31000 	ldrb	r1, [r3]
43e02588:	e2422010 	sub	r2, r2, #16
43e0258c:	e5d3c001 	ldrb	ip, [r3, #1]
43e02590:	e352000f 	cmp	r2, #15
43e02594:	e081b00b 	add	fp, r1, fp
43e02598:	e5d34002 	ldrb	r4, [r3, #2]
43e0259c:	e08b5005 	add	r5, fp, r5
43e025a0:	e08bb00c 	add	fp, fp, ip
43e025a4:	e5d3c003 	ldrb	ip, [r3, #3]
43e025a8:	e08b4004 	add	r4, fp, r4
43e025ac:	e5d30004 	ldrb	r0, [r3, #4]
43e025b0:	e085500b 	add	r5, r5, fp
43e025b4:	e084c00c 	add	ip, r4, ip
43e025b8:	e5d31005 	ldrb	r1, [r3, #5]
43e025bc:	e0855004 	add	r5, r5, r4
43e025c0:	e08c0000 	add	r0, ip, r0
43e025c4:	e5d3b006 	ldrb	fp, [r3, #6]
43e025c8:	e085500c 	add	r5, r5, ip
43e025cc:	e0801001 	add	r1, r0, r1
43e025d0:	e5d3c007 	ldrb	ip, [r3, #7]
43e025d4:	e0855000 	add	r5, r5, r0
43e025d8:	e081b00b 	add	fp, r1, fp
43e025dc:	e5d30008 	ldrb	r0, [r3, #8]
43e025e0:	e0855001 	add	r5, r5, r1
43e025e4:	e08bc00c 	add	ip, fp, ip
43e025e8:	e5d31009 	ldrb	r1, [r3, #9]
43e025ec:	e085500b 	add	r5, r5, fp
43e025f0:	e08c0000 	add	r0, ip, r0
43e025f4:	e5d3400a 	ldrb	r4, [r3, #10]
43e025f8:	e085500c 	add	r5, r5, ip
43e025fc:	e0801001 	add	r1, r0, r1
43e02600:	e5d3c00b 	ldrb	ip, [r3, #11]
43e02604:	e0855000 	add	r5, r5, r0
43e02608:	e0814004 	add	r4, r1, r4
43e0260c:	e0855001 	add	r5, r5, r1
43e02610:	e5d3000c 	ldrb	r0, [r3, #12]
43e02614:	e084c00c 	add	ip, r4, ip
43e02618:	e5d3100d 	ldrb	r1, [r3, #13]
43e0261c:	e0854004 	add	r4, r5, r4
43e02620:	e08c0000 	add	r0, ip, r0
43e02624:	e5d3500e 	ldrb	r5, [r3, #14]
43e02628:	e084400c 	add	r4, r4, ip
43e0262c:	e0801001 	add	r1, r0, r1
43e02630:	e5d3b00f 	ldrb	fp, [r3, #15]
43e02634:	e0844000 	add	r4, r4, r0
43e02638:	e0815005 	add	r5, r1, r5
43e0263c:	e0844001 	add	r4, r4, r1
43e02640:	e085b00b 	add	fp, r5, fp
43e02644:	e0845005 	add	r5, r4, r5
43e02648:	e2833010 	add	r3, r3, #16
43e0264c:	e085500b 	add	r5, r5, fp
43e02650:	caffffcb 	bgt	43e02584 <_end+0x43b820f8>
43e02654:	e2466010 	sub	r6, r6, #16
43e02658:	e1a03226 	lsr	r3, r6, #4
43e0265c:	e2832001 	add	r2, r3, #1
43e02660:	e0461203 	sub	r1, r6, r3, lsl #4
43e02664:	e08aa202 	add	sl, sl, r2, lsl #4
43e02668:	e3510000 	cmp	r1, #0
43e0266c:	0a000007 	beq	43e02690 <_end+0x43b82204>
43e02670:	e1a03001 	mov	r3, r1
43e02674:	e1a0200a 	mov	r2, sl
43e02678:	e4d20001 	ldrb	r0, [r2], #1
43e0267c:	e2533001 	subs	r3, r3, #1
43e02680:	e08bb000 	add	fp, fp, r0
43e02684:	e085500b 	add	r5, r5, fp
43e02688:	1afffffa 	bne	43e02678 <_end+0x43b821ec>
43e0268c:	e08aa001 	add	sl, sl, r1
43e02690:	e0821b97 	umull	r1, r2, r7, fp
43e02694:	e3590000 	cmp	r9, #0
43e02698:	e083c597 	umull	ip, r3, r7, r5
43e0269c:	e1a027a2 	lsr	r2, r2, #15
43e026a0:	e0621602 	rsb	r1, r2, r2, lsl #12
43e026a4:	e1a037a3 	lsr	r3, r3, #15
43e026a8:	e0822201 	add	r2, r2, r1, lsl #4
43e026ac:	e0631603 	rsb	r1, r3, r3, lsl #12
43e026b0:	e062b00b 	rsb	fp, r2, fp
43e026b4:	e0833201 	add	r3, r3, r1, lsl #4
43e026b8:	e0635005 	rsb	r5, r3, r5
43e026bc:	1affffa7 	bne	43e02560 <_end+0x43b820d4>
43e026c0:	e59d7024 	ldr	r7, [sp, #36]	; 0x24
43e026c4:	e18b5805 	orr	r5, fp, r5, lsl #16
43e026c8:	e5875018 	str	r5, [r7, #24]
43e026cc:	e5885028 	str	r5, [r8, #40]	; 0x28
43e026d0:	e897000c 	ldm	r7, {r2, r3}
43e026d4:	e59dc01c 	ldr	ip, [sp, #28]
43e026d8:	e3530000 	cmp	r3, #0
43e026dc:	e5971038 	ldr	r1, [r7, #56]	; 0x38
43e026e0:	13a03040 	movne	r3, #64	; 0x40
43e026e4:	e352000b 	cmp	r2, #11
43e026e8:	e0833001 	add	r3, r3, r1
43e026ec:	03a02080 	moveq	r2, #128	; 0x80
43e026f0:	13a02000 	movne	r2, #0
43e026f4:	e35c0000 	cmp	ip, #0
43e026f8:	e0833002 	add	r3, r3, r2
43e026fc:	e5883024 	str	r3, [r8, #36]	; 0x24
43e02700:	0a000105 	beq	43e02b1c <_end+0x43b82690>
43e02704:	e5983010 	ldr	r3, [r8, #16]
43e02708:	e3530000 	cmp	r3, #0
43e0270c:	0a000102 	beq	43e02b1c <_end+0x43b82690>
43e02710:	e5983004 	ldr	r3, [r8, #4]
43e02714:	e3530000 	cmp	r3, #0
43e02718:	1a0000ff 	bne	43e02b1c <_end+0x43b82690>
43e0271c:	e598301c 	ldr	r3, [r8, #28]
43e02720:	e3530000 	cmp	r3, #0
43e02724:	0a000188 	beq	43e02d4c <_end+0x43b828c0>
43e02728:	e5932000 	ldr	r2, [r3]
43e0272c:	e352000d 	cmp	r2, #13
43e02730:	13e03002 	mvnne	r3, #2
43e02734:	158d3014 	strne	r3, [sp, #20]
43e02738:	1afffdee 	bne	43e01ef8 <_end+0x43b81a6c>
43e0273c:	e5932038 	ldr	r2, [r3, #56]	; 0x38
43e02740:	e3520000 	cmp	r2, #0
43e02744:	058d2014 	streq	r2, [sp, #20]
43e02748:	03a0200b 	moveq	r2, #11
43e0274c:	05832000 	streq	r2, [r3]
43e02750:	13e08002 	mvnne	r8, #2
43e02754:	158d8014 	strne	r8, [sp, #20]
43e02758:	eafffde6 	b	43e01ef8 <_end+0x43b81a6c>
43e0275c:	e5978064 	ldr	r8, [r7, #100]	; 0x64
43e02760:	e597205c 	ldr	r2, [r7, #92]	; 0x5c
43e02764:	e5979060 	ldr	r9, [r7, #96]	; 0x60
43e02768:	e0829009 	add	r9, r2, r9
43e0276c:	e58d2038 	str	r2, [sp, #56]	; 0x38
43e02770:	e1590008 	cmp	r9, r8
43e02774:	9a0001c7 	bls	43e02e98 <_end+0x43b82a0c>
43e02778:	e597c050 	ldr	ip, [r7, #80]	; 0x50
43e0277c:	e3a01001 	mov	r1, #1
43e02780:	e5970048 	ldr	r0, [r7, #72]	; 0x48
43e02784:	e1a0cc11 	lsl	ip, r1, ip
43e02788:	e24cc001 	sub	ip, ip, #1
43e0278c:	e006300c 	and	r3, r6, ip
43e02790:	e0803103 	add	r3, r0, r3, lsl #2
43e02794:	e5d31001 	ldrb	r1, [r3, #1]
43e02798:	e1d320b2 	ldrh	r2, [r3, #2]
43e0279c:	e1540001 	cmp	r4, r1
43e027a0:	2a000010 	bcs	43e027e8 <_end+0x43b8235c>
43e027a4:	e3550000 	cmp	r5, #0
43e027a8:	0a0001f8 	beq	43e02f90 <_end+0x43b82b04>
43e027ac:	e1a0300a 	mov	r3, sl
43e027b0:	ea000001 	b	43e027bc <_end+0x43b82330>
43e027b4:	e3550000 	cmp	r5, #0
43e027b8:	0a0000e9 	beq	43e02b64 <_end+0x43b826d8>
43e027bc:	e4d32001 	ldrb	r2, [r3], #1
43e027c0:	e2455001 	sub	r5, r5, #1
43e027c4:	e0866412 	add	r6, r6, r2, lsl r4
43e027c8:	e2844008 	add	r4, r4, #8
43e027cc:	e006200c 	and	r2, r6, ip
43e027d0:	e1a0a003 	mov	sl, r3
43e027d4:	e0802102 	add	r2, r0, r2, lsl #2
43e027d8:	e5d21001 	ldrb	r1, [r2, #1]
43e027dc:	e1d220b2 	ldrh	r2, [r2, #2]
43e027e0:	e1510004 	cmp	r1, r4
43e027e4:	8afffff2 	bhi	43e027b4 <_end+0x43b82328>
43e027e8:	e352000f 	cmp	r2, #15
43e027ec:	9a000103 	bls	43e02c00 <_end+0x43b82774>
43e027f0:	e3520010 	cmp	r2, #16
43e027f4:	0a000172 	beq	43e02dc4 <_end+0x43b82938>
43e027f8:	e3520011 	cmp	r2, #17
43e027fc:	0a00018b 	beq	43e02e30 <_end+0x43b829a4>
43e02800:	e2812007 	add	r2, r1, #7
43e02804:	e1540002 	cmp	r4, r2
43e02808:	2a00000c 	bcs	43e02840 <_end+0x43b823b4>
43e0280c:	e3550000 	cmp	r5, #0
43e02810:	0a00013f 	beq	43e02d14 <_end+0x43b82888>
43e02814:	e1a0300a 	mov	r3, sl
43e02818:	ea000001 	b	43e02824 <_end+0x43b82398>
43e0281c:	e3550000 	cmp	r5, #0
43e02820:	0a0000cf 	beq	43e02b64 <_end+0x43b826d8>
43e02824:	e4d30001 	ldrb	r0, [r3], #1
43e02828:	e2455001 	sub	r5, r5, #1
43e0282c:	e0866410 	add	r6, r6, r0, lsl r4
43e02830:	e2844008 	add	r4, r4, #8
43e02834:	e1540002 	cmp	r4, r2
43e02838:	e1a0a003 	mov	sl, r3
43e0283c:	3afffff6 	bcc	43e0281c <_end+0x43b82390>
43e02840:	e1a06136 	lsr	r6, r6, r1
43e02844:	e30f3ff9 	movw	r3, #65529	; 0xfff9
43e02848:	e34f3fff 	movt	r3, #65535	; 0xffff
43e0284c:	e206207f 	and	r2, r6, #127	; 0x7f
43e02850:	e0613003 	rsb	r3, r1, r3
43e02854:	e1a063a6 	lsr	r6, r6, #7
43e02858:	e282100b 	add	r1, r2, #11
43e0285c:	e0844003 	add	r4, r4, r3
43e02860:	e3a00000 	mov	r0, #0
43e02864:	e081c008 	add	ip, r1, r8
43e02868:	e159000c 	cmp	r9, ip
43e0286c:	3a000209 	bcc	43e03098 <_end+0x43b82c0c>
43e02870:	e6ff0070 	uxth	r0, r0
43e02874:	e1a01081 	lsl	r1, r1, #1
43e02878:	e0878088 	add	r8, r7, r8, lsl #1
43e0287c:	e3a03000 	mov	r3, #0
43e02880:	e0882003 	add	r2, r8, r3
43e02884:	e2833002 	add	r3, r3, #2
43e02888:	e1530001 	cmp	r3, r1
43e0288c:	e1c206bc 	strh	r0, [r2, #108]	; 0x6c
43e02890:	1afffffa 	bne	43e02880 <_end+0x43b823f4>
43e02894:	e1a0800c 	mov	r8, ip
43e02898:	e587c064 	str	ip, [r7, #100]	; 0x64
43e0289c:	eaffffb3 	b	43e02770 <_end+0x43b822e4>
43e028a0:	e3a0c000 	mov	ip, #0
43e028a4:	e59d8010 	ldr	r8, [sp, #16]
43e028a8:	e3e03002 	mvn	r3, #2
43e028ac:	e58dc01c 	str	ip, [sp, #28]
43e028b0:	e58d3014 	str	r3, [sp, #20]
43e028b4:	e58dc010 	str	ip, [sp, #16]
43e028b8:	eafffef3 	b	43e0248c <_end+0x43b82000>
43e028bc:	e59d800c 	ldr	r8, [sp, #12]
43e028c0:	e3003101 	movw	r3, #257	; 0x101
43e028c4:	e3550005 	cmp	r5, #5
43e028c8:	81580003 	cmphi	r8, r3
43e028cc:	8a0000f8 	bhi	43e02cb4 <_end+0x43b82828>
43e028d0:	e5973050 	ldr	r3, [r7, #80]	; 0x50
43e028d4:	e3e08000 	mvn	r8, #0
43e028d8:	e5970048 	ldr	r0, [r7, #72]	; 0x48
43e028dc:	e1e08318 	mvn	r8, r8, lsl r3
43e028e0:	e0062008 	and	r2, r6, r8
43e028e4:	e0803102 	add	r3, r0, r2, lsl #2
43e028e8:	e7d0c102 	ldrb	ip, [r0, r2, lsl #2]
43e028ec:	e5d31001 	ldrb	r1, [r3, #1]
43e028f0:	e1d320b2 	ldrh	r2, [r3, #2]
43e028f4:	e1540001 	cmp	r4, r1
43e028f8:	2a000023 	bcs	43e0298c <_end+0x43b82500>
43e028fc:	e3550000 	cmp	r5, #0
43e02900:	0a000103 	beq	43e02d14 <_end+0x43b82888>
43e02904:	e1a0300a 	mov	r3, sl
43e02908:	ea000013 	b	43e0295c <_end+0x43b824d0>
43e0290c:	000040c0 	andeq	r4, r0, r0, asr #1
43e02910:	00004080 	andeq	r4, r0, r0, lsl #1
43e02914:	00004b60 	andeq	r4, r0, r0, ror #22
43e02918:	000046f0 	strdeq	r4, [r0], -r0
43e0291c:	000045b4 			; <UNDEFINED> instruction: 0x000045b4
43e02920:	00003a38 	andeq	r3, r0, r8, lsr sl
43e02924:	00004470 	andeq	r4, r0, r0, ror r4
43e02928:	00004330 	andeq	r4, r0, r0, lsr r3
43e0292c:	00004174 	andeq	r4, r0, r4, ror r1
43e02930:	00003a3c 	andeq	r3, r0, ip, lsr sl
43e02934:	000038a0 	andeq	r3, r0, r0, lsr #17
43e02938:	000038ac 	andeq	r3, r0, ip, lsr #17
43e0293c:	00003758 	andeq	r3, r0, r8, asr r7
43e02940:	000036a4 	andeq	r3, r0, r4, lsr #13
43e02944:	00003580 	andeq	r3, r0, r0, lsl #11
43e02948:	00003590 	muleq	r0, r0, r5
43e0294c:	000034e8 	andeq	r3, r0, r8, ror #9
43e02950:	000034c8 	andeq	r3, r0, r8, asr #9
43e02954:	e3550000 	cmp	r5, #0
43e02958:	0a000081 	beq	43e02b64 <_end+0x43b826d8>
43e0295c:	e4d32001 	ldrb	r2, [r3], #1
43e02960:	e2455001 	sub	r5, r5, #1
43e02964:	e0866412 	add	r6, r6, r2, lsl r4
43e02968:	e2844008 	add	r4, r4, #8
43e0296c:	e0061008 	and	r1, r6, r8
43e02970:	e1a0a003 	mov	sl, r3
43e02974:	e0802101 	add	r2, r0, r1, lsl #2
43e02978:	e7d0c101 	ldrb	ip, [r0, r1, lsl #2]
43e0297c:	e5d21001 	ldrb	r1, [r2, #1]
43e02980:	e1d220b2 	ldrh	r2, [r2, #2]
43e02984:	e1510004 	cmp	r1, r4
43e02988:	8afffff1 	bhi	43e02954 <_end+0x43b824c8>
43e0298c:	e35c0000 	cmp	ip, #0
43e02990:	0a0000f0 	beq	43e02d58 <_end+0x43b828cc>
43e02994:	e31c00f0 	tst	ip, #240	; 0xf0
43e02998:	1a000105 	bne	43e02db4 <_end+0x43b82928>
43e0299c:	e08cc001 	add	ip, ip, r1
43e029a0:	e3e03000 	mvn	r3, #0
43e029a4:	e1e03c13 	mvn	r3, r3, lsl ip
43e029a8:	e58d3038 	str	r3, [sp, #56]	; 0x38
43e029ac:	e0033006 	and	r3, r3, r6
43e029b0:	e0823133 	add	r3, r2, r3, lsr r1
43e029b4:	e0809103 	add	r9, r0, r3, lsl #2
43e029b8:	e7d0c103 	ldrb	ip, [r0, r3, lsl #2]
43e029bc:	e5d98001 	ldrb	r8, [r9, #1]
43e029c0:	e1d990b2 	ldrh	r9, [r9, #2]
43e029c4:	e0813008 	add	r3, r1, r8
43e029c8:	e1540003 	cmp	r4, r3
43e029cc:	2a000019 	bcs	43e02a38 <_end+0x43b825ac>
43e029d0:	e3550000 	cmp	r5, #0
43e029d4:	0a000062 	beq	43e02b64 <_end+0x43b826d8>
43e029d8:	e58db03c 	str	fp, [sp, #60]	; 0x3c
43e029dc:	e1a0900a 	mov	r9, sl
43e029e0:	e1a0b007 	mov	fp, r7
43e029e4:	ea000001 	b	43e029f0 <_end+0x43b82564>
43e029e8:	e3550000 	cmp	r5, #0
43e029ec:	0a00005a 	beq	43e02b5c <_end+0x43b826d0>
43e029f0:	e4d93001 	ldrb	r3, [r9], #1
43e029f4:	e2455001 	sub	r5, r5, #1
43e029f8:	e0866413 	add	r6, r6, r3, lsl r4
43e029fc:	e59d3038 	ldr	r3, [sp, #56]	; 0x38
43e02a00:	e2844008 	add	r4, r4, #8
43e02a04:	e1a0a009 	mov	sl, r9
43e02a08:	e006c003 	and	ip, r6, r3
43e02a0c:	e082c13c 	add	ip, r2, ip, lsr r1
43e02a10:	e080310c 	add	r3, r0, ip, lsl #2
43e02a14:	e7d0c10c 	ldrb	ip, [r0, ip, lsl #2]
43e02a18:	e5d38001 	ldrb	r8, [r3, #1]
43e02a1c:	e1d370b2 	ldrh	r7, [r3, #2]
43e02a20:	e0883001 	add	r3, r8, r1
43e02a24:	e1530004 	cmp	r3, r4
43e02a28:	8affffee 	bhi	43e029e8 <_end+0x43b8255c>
43e02a2c:	e1a09007 	mov	r9, r7
43e02a30:	e1a0700b 	mov	r7, fp
43e02a34:	e59db03c 	ldr	fp, [sp, #60]	; 0x3c
43e02a38:	e1a06136 	lsr	r6, r6, r1
43e02a3c:	e35c0000 	cmp	ip, #0
43e02a40:	e0614004 	rsb	r4, r1, r4
43e02a44:	e587903c 	str	r9, [r7, #60]	; 0x3c
43e02a48:	e1a06836 	lsr	r6, r6, r8
43e02a4c:	e0684004 	rsb	r4, r8, r4
43e02a50:	0a0000c3 	beq	43e02d64 <_end+0x43b828d8>
43e02a54:	e31c0020 	tst	ip, #32
43e02a58:	1a000057 	bne	43e02bbc <_end+0x43b82730>
43e02a5c:	e31c0040 	tst	ip, #64	; 0x40
43e02a60:	0a000136 	beq	43e02f40 <_end+0x43b82ab4>
43e02a64:	e59d8010 	ldr	r8, [sp, #16]
43e02a68:	e3a0201b 	mov	r2, #27
43e02a6c:	e51f1144 	ldr	r1, [pc, #-324]	; 43e02930 <_end+0x43b824a4>
43e02a70:	e1a03002 	mov	r3, r2
43e02a74:	e08f1001 	add	r1, pc, r1
43e02a78:	e5881018 	str	r1, [r8, #24]
43e02a7c:	e5872000 	str	r2, [r7]
43e02a80:	eafffbdc 	b	43e019f8 <_end+0x43b8156c>
43e02a84:	e354000d 	cmp	r4, #13
43e02a88:	8a00000c 	bhi	43e02ac0 <_end+0x43b82634>
43e02a8c:	e3550000 	cmp	r5, #0
43e02a90:	0a00009f 	beq	43e02d14 <_end+0x43b82888>
43e02a94:	e1a0300a 	mov	r3, sl
43e02a98:	ea000001 	b	43e02aa4 <_end+0x43b82618>
43e02a9c:	e3550000 	cmp	r5, #0
43e02aa0:	0a00002f 	beq	43e02b64 <_end+0x43b826d8>
43e02aa4:	e4d32001 	ldrb	r2, [r3], #1
43e02aa8:	e2455001 	sub	r5, r5, #1
43e02aac:	e0866412 	add	r6, r6, r2, lsl r4
43e02ab0:	e2844008 	add	r4, r4, #8
43e02ab4:	e354000d 	cmp	r4, #13
43e02ab8:	e1a0a003 	mov	sl, r3
43e02abc:	9afffff6 	bls	43e02a9c <_end+0x43b82610>
43e02ac0:	e206301f 	and	r3, r6, #31
43e02ac4:	e300011e 	movw	r0, #286	; 0x11e
43e02ac8:	e2833c01 	add	r3, r3, #256	; 0x100
43e02acc:	e7e422d6 	ubfx	r2, r6, #5, #5
43e02ad0:	e2833001 	add	r3, r3, #1
43e02ad4:	e7e31556 	ubfx	r1, r6, #10, #4
43e02ad8:	e1530000 	cmp	r3, r0
43e02adc:	e2822001 	add	r2, r2, #1
43e02ae0:	e2811004 	add	r1, r1, #4
43e02ae4:	e587305c 	str	r3, [r7, #92]	; 0x5c
43e02ae8:	e5872060 	str	r2, [r7, #96]	; 0x60
43e02aec:	e1a06726 	lsr	r6, r6, #14
43e02af0:	e5871058 	str	r1, [r7, #88]	; 0x58
43e02af4:	e244400e 	sub	r4, r4, #14
43e02af8:	8a000066 	bhi	43e02c98 <_end+0x43b8280c>
43e02afc:	e352001e 	cmp	r2, #30
43e02b00:	8a000064 	bhi	43e02c98 <_end+0x43b8280c>
43e02b04:	e3a02000 	mov	r2, #0
43e02b08:	e5872064 	str	r2, [r7, #100]	; 0x64
43e02b0c:	e1a03002 	mov	r3, r2
43e02b10:	e3a02010 	mov	r2, #16
43e02b14:	e5872000 	str	r2, [r7]
43e02b18:	eafffd3b 	b	43e0200c <_end+0x43b81b80>
43e02b1c:	e59d000c 	ldr	r0, [sp, #12]
43e02b20:	e59d1018 	ldr	r1, [sp, #24]
43e02b24:	e59d8020 	ldr	r8, [sp, #32]
43e02b28:	e1900001 	orrs	r0, r0, r1
43e02b2c:	13a03000 	movne	r3, #0
43e02b30:	03a03001 	moveq	r3, #1
43e02b34:	e3580005 	cmp	r8, #5
43e02b38:	03833001 	orreq	r3, r3, #1
43e02b3c:	e3530000 	cmp	r3, #0
43e02b40:	0afffcec 	beq	43e01ef8 <_end+0x43b81a6c>
43e02b44:	e59dc010 	ldr	ip, [sp, #16]
43e02b48:	e59d3014 	ldr	r3, [sp, #20]
43e02b4c:	e35c0000 	cmp	ip, #0
43e02b50:	13e03004 	mvnne	r3, #4
43e02b54:	e58d3014 	str	r3, [sp, #20]
43e02b58:	eafffce6 	b	43e01ef8 <_end+0x43b81a6c>
43e02b5c:	e1a0700b 	mov	r7, fp
43e02b60:	e59db03c 	ldr	fp, [sp, #60]	; 0x3c
43e02b64:	e59d2014 	ldr	r2, [sp, #20]
43e02b68:	e59dc020 	ldr	ip, [sp, #32]
43e02b6c:	e2722001 	rsbs	r2, r2, #1
43e02b70:	e59d8010 	ldr	r8, [sp, #16]
43e02b74:	33a02000 	movcc	r2, #0
43e02b78:	e58d2010 	str	r2, [sp, #16]
43e02b7c:	e35c0002 	cmp	ip, #2
43e02b80:	13a02000 	movne	r2, #0
43e02b84:	02022001 	andeq	r2, r2, #1
43e02b88:	e58d201c 	str	r2, [sp, #28]
43e02b8c:	eafffe3e 	b	43e0248c <_end+0x43b82000>
43e02b90:	e5983004 	ldr	r3, [r8, #4]
43e02b94:	e3530000 	cmp	r3, #0
43e02b98:	13e03001 	mvnne	r3, #1
43e02b9c:	158d3014 	strne	r3, [sp, #20]
43e02ba0:	0afffb73 	beq	43e01974 <_end+0x43b814e8>
43e02ba4:	eafffcd3 	b	43e01ef8 <_end+0x43b81a6c>
43e02ba8:	e597c03c 	ldr	ip, [r7, #60]	; 0x3c
43e02bac:	e59d8024 	ldr	r8, [sp, #36]	; 0x24
43e02bb0:	e1a0000c 	mov	r0, ip
43e02bb4:	e0611008 	rsb	r1, r1, r8
43e02bb8:	eafffcb5 	b	43e01e94 <_end+0x43b81a08>
43e02bbc:	e3a0300b 	mov	r3, #11
43e02bc0:	e5873000 	str	r3, [r7]
43e02bc4:	eafffb8b 	b	43e019f8 <_end+0x43b8156c>
43e02bc8:	e59dc010 	ldr	ip, [sp, #16]
43e02bcc:	e3a0201b 	mov	r2, #27
43e02bd0:	e51f12a4 	ldr	r1, [pc, #-676]	; 43e02934 <_end+0x43b824a8>
43e02bd4:	e1a03002 	mov	r3, r2
43e02bd8:	e08f1001 	add	r1, pc, r1
43e02bdc:	e58c1018 	str	r1, [ip, #24]
43e02be0:	e5872000 	str	r2, [r7]
43e02be4:	eafffb83 	b	43e019f8 <_end+0x43b8156c>
43e02be8:	e200000f 	and	r0, r0, #15
43e02bec:	e3a03015 	mov	r3, #21
43e02bf0:	e587c040 	str	ip, [r7, #64]	; 0x40
43e02bf4:	e5870044 	str	r0, [r7, #68]	; 0x44
43e02bf8:	e5873000 	str	r3, [r7]
43e02bfc:	eafffc6e 	b	43e01dbc <_end+0x43b81930>
43e02c00:	e1540001 	cmp	r4, r1
43e02c04:	2a00000c 	bcs	43e02c3c <_end+0x43b827b0>
43e02c08:	e3550000 	cmp	r5, #0
43e02c0c:	0affffd4 	beq	43e02b64 <_end+0x43b826d8>
43e02c10:	e1a0300a 	mov	r3, sl
43e02c14:	ea000001 	b	43e02c20 <_end+0x43b82794>
43e02c18:	e3550000 	cmp	r5, #0
43e02c1c:	0affffd0 	beq	43e02b64 <_end+0x43b826d8>
43e02c20:	e4d30001 	ldrb	r0, [r3], #1
43e02c24:	e2455001 	sub	r5, r5, #1
43e02c28:	e0866410 	add	r6, r6, r0, lsl r4
43e02c2c:	e2844008 	add	r4, r4, #8
43e02c30:	e1540001 	cmp	r4, r1
43e02c34:	e1a0a003 	mov	sl, r3
43e02c38:	3afffff6 	bcc	43e02c18 <_end+0x43b8278c>
43e02c3c:	e0873088 	add	r3, r7, r8, lsl #1
43e02c40:	e1a06136 	lsr	r6, r6, r1
43e02c44:	e2888001 	add	r8, r8, #1
43e02c48:	e0614004 	rsb	r4, r1, r4
43e02c4c:	e1c326bc 	strh	r2, [r3, #108]	; 0x6c
43e02c50:	e5878064 	str	r8, [r7, #100]	; 0x64
43e02c54:	eafffec5 	b	43e02770 <_end+0x43b822e4>
43e02c58:	e59d8010 	ldr	r8, [sp, #16]
43e02c5c:	e3a0101b 	mov	r1, #27
43e02c60:	e51f0330 	ldr	r0, [pc, #-816]	; 43e02938 <_end+0x43b824ac>
43e02c64:	e1a03001 	mov	r3, r1
43e02c68:	e08f0000 	add	r0, pc, r0
43e02c6c:	e5880018 	str	r0, [r8, #24]
43e02c70:	e5871000 	str	r1, [r7]
43e02c74:	eafffbcd 	b	43e01bb0 <_end+0x43b81724>
43e02c78:	e59d2014 	ldr	r2, [sp, #20]
43e02c7c:	e3a03000 	mov	r3, #0
43e02c80:	e59d8010 	ldr	r8, [sp, #16]
43e02c84:	e2722001 	rsbs	r2, r2, #1
43e02c88:	e58d301c 	str	r3, [sp, #28]
43e02c8c:	33a02000 	movcc	r2, #0
43e02c90:	e58d2010 	str	r2, [sp, #16]
43e02c94:	eafffdfc 	b	43e0248c <_end+0x43b82000>
43e02c98:	e59d802c 	ldr	r8, [sp, #44]	; 0x2c
43e02c9c:	e3a0201b 	mov	r2, #27
43e02ca0:	e59dc010 	ldr	ip, [sp, #16]
43e02ca4:	e1a03002 	mov	r3, r2
43e02ca8:	e58c8018 	str	r8, [ip, #24]
43e02cac:	e5872000 	str	r2, [r7]
43e02cb0:	eafffb50 	b	43e019f8 <_end+0x43b8156c>
43e02cb4:	e59d8010 	ldr	r8, [sp, #16]
43e02cb8:	e1a0100b 	mov	r1, fp
43e02cbc:	e59dc024 	ldr	ip, [sp, #36]	; 0x24
43e02cc0:	e588a000 	str	sl, [r8]
43e02cc4:	e1a00008 	mov	r0, r8
43e02cc8:	e588c00c 	str	ip, [r8, #12]
43e02ccc:	e59dc00c 	ldr	ip, [sp, #12]
43e02cd0:	e5885004 	str	r5, [r8, #4]
43e02cd4:	e588c010 	str	ip, [r8, #16]
43e02cd8:	e5876034 	str	r6, [r7, #52]	; 0x34
43e02cdc:	e5874038 	str	r4, [r7, #56]	; 0x38
43e02ce0:	ebfff934 	bl	43e011b8 <_end+0x43b80d2c>
43e02ce4:	e598800c 	ldr	r8, [r8, #12]
43e02ce8:	e59dc010 	ldr	ip, [sp, #16]
43e02cec:	e5976034 	ldr	r6, [r7, #52]	; 0x34
43e02cf0:	e58d8024 	str	r8, [sp, #36]	; 0x24
43e02cf4:	e59cc010 	ldr	ip, [ip, #16]
43e02cf8:	e59d8010 	ldr	r8, [sp, #16]
43e02cfc:	e5974038 	ldr	r4, [r7, #56]	; 0x38
43e02d00:	e58dc00c 	str	ip, [sp, #12]
43e02d04:	e598a000 	ldr	sl, [r8]
43e02d08:	e5985004 	ldr	r5, [r8, #4]
43e02d0c:	e5973000 	ldr	r3, [r7]
43e02d10:	eafffb38 	b	43e019f8 <_end+0x43b8156c>
43e02d14:	e59dc014 	ldr	ip, [sp, #20]
43e02d18:	e59d0020 	ldr	r0, [sp, #32]
43e02d1c:	e27cc001 	rsbs	ip, ip, #1
43e02d20:	e59d8010 	ldr	r8, [sp, #16]
43e02d24:	33a0c000 	movcc	ip, #0
43e02d28:	e58dc010 	str	ip, [sp, #16]
43e02d2c:	e3500002 	cmp	r0, #2
43e02d30:	13a0c000 	movne	ip, #0
43e02d34:	020cc001 	andeq	ip, ip, #1
43e02d38:	e58dc01c 	str	ip, [sp, #28]
43e02d3c:	eafffdd2 	b	43e0248c <_end+0x43b82000>
43e02d40:	e59db044 	ldr	fp, [sp, #68]	; 0x44
43e02d44:	e59d7048 	ldr	r7, [sp, #72]	; 0x48
43e02d48:	eaffff85 	b	43e02b64 <_end+0x43b826d8>
43e02d4c:	e3e0c001 	mvn	ip, #1
43e02d50:	e58dc014 	str	ip, [sp, #20]
43e02d54:	eafffc67 	b	43e01ef8 <_end+0x43b81a6c>
43e02d58:	e1a06136 	lsr	r6, r6, r1
43e02d5c:	e0614004 	rsb	r4, r1, r4
43e02d60:	e587203c 	str	r2, [r7, #60]	; 0x3c
43e02d64:	e3a03017 	mov	r3, #23
43e02d68:	e5873000 	str	r3, [r7]
43e02d6c:	eafffb21 	b	43e019f8 <_end+0x43b8156c>
43e02d70:	e206200f 	and	r2, r6, #15
43e02d74:	e3520008 	cmp	r2, #8
43e02d78:	0a000075 	beq	43e02f54 <_end+0x43b82ac8>
43e02d7c:	e59dc010 	ldr	ip, [sp, #16]
43e02d80:	e3a0201b 	mov	r2, #27
43e02d84:	e51f1450 	ldr	r1, [pc, #-1104]	; 43e0293c <_end+0x43b824b0>
43e02d88:	e1a03002 	mov	r3, r2
43e02d8c:	e08f1001 	add	r1, pc, r1
43e02d90:	e58c1018 	str	r1, [ip, #24]
43e02d94:	e5872000 	str	r2, [r7]
43e02d98:	eafffb16 	b	43e019f8 <_end+0x43b8156c>
43e02d9c:	e3a04000 	mov	r4, #0
43e02da0:	e3a0200e 	mov	r2, #14
43e02da4:	e1a06004 	mov	r6, r4
43e02da8:	e587303c 	str	r3, [r7, #60]	; 0x3c
43e02dac:	e5872000 	str	r2, [r7]
43e02db0:	eafffc74 	b	43e01f88 <_end+0x43b81afc>
43e02db4:	e1a06136 	lsr	r6, r6, r1
43e02db8:	e0614004 	rsb	r4, r1, r4
43e02dbc:	e587203c 	str	r2, [r7, #60]	; 0x3c
43e02dc0:	eaffff23 	b	43e02a54 <_end+0x43b825c8>
43e02dc4:	e2812002 	add	r2, r1, #2
43e02dc8:	e1540002 	cmp	r4, r2
43e02dcc:	2a00000c 	bcs	43e02e04 <_end+0x43b82978>
43e02dd0:	e3550000 	cmp	r5, #0
43e02dd4:	0affff62 	beq	43e02b64 <_end+0x43b826d8>
43e02dd8:	e1a0300a 	mov	r3, sl
43e02ddc:	ea000001 	b	43e02de8 <_end+0x43b8295c>
43e02de0:	e3550000 	cmp	r5, #0
43e02de4:	0affff5e 	beq	43e02b64 <_end+0x43b826d8>
43e02de8:	e4d30001 	ldrb	r0, [r3], #1
43e02dec:	e2455001 	sub	r5, r5, #1
43e02df0:	e0866410 	add	r6, r6, r0, lsl r4
43e02df4:	e2844008 	add	r4, r4, #8
43e02df8:	e1540002 	cmp	r4, r2
43e02dfc:	e1a0a003 	mov	sl, r3
43e02e00:	3afffff6 	bcc	43e02de0 <_end+0x43b82954>
43e02e04:	e3580000 	cmp	r8, #0
43e02e08:	e1a06136 	lsr	r6, r6, r1
43e02e0c:	e0614004 	rsb	r4, r1, r4
43e02e10:	0a0000a8 	beq	43e030b8 <_end+0x43b82c2c>
43e02e14:	e0873088 	add	r3, r7, r8, lsl #1
43e02e18:	e2061003 	and	r1, r6, #3
43e02e1c:	e2811003 	add	r1, r1, #3
43e02e20:	e1a06126 	lsr	r6, r6, #2
43e02e24:	e1d306ba 	ldrh	r0, [r3, #106]	; 0x6a
43e02e28:	e2444002 	sub	r4, r4, #2
43e02e2c:	eafffe8c 	b	43e02864 <_end+0x43b823d8>
43e02e30:	e2812003 	add	r2, r1, #3
43e02e34:	e1540002 	cmp	r4, r2
43e02e38:	2a00000c 	bcs	43e02e70 <_end+0x43b829e4>
43e02e3c:	e3550000 	cmp	r5, #0
43e02e40:	0affff47 	beq	43e02b64 <_end+0x43b826d8>
43e02e44:	e1a0300a 	mov	r3, sl
43e02e48:	ea000001 	b	43e02e54 <_end+0x43b829c8>
43e02e4c:	e3550000 	cmp	r5, #0
43e02e50:	0affff43 	beq	43e02b64 <_end+0x43b826d8>
43e02e54:	e4d30001 	ldrb	r0, [r3], #1
43e02e58:	e2455001 	sub	r5, r5, #1
43e02e5c:	e0866410 	add	r6, r6, r0, lsl r4
43e02e60:	e2844008 	add	r4, r4, #8
43e02e64:	e1540002 	cmp	r4, r2
43e02e68:	e1a0a003 	mov	sl, r3
43e02e6c:	3afffff6 	bcc	43e02e4c <_end+0x43b829c0>
43e02e70:	e1a06136 	lsr	r6, r6, r1
43e02e74:	e30f3ffd 	movw	r3, #65533	; 0xfffd
43e02e78:	e34f3fff 	movt	r3, #65535	; 0xffff
43e02e7c:	e2062007 	and	r2, r6, #7
43e02e80:	e0613003 	rsb	r3, r1, r3
43e02e84:	e1a061a6 	lsr	r6, r6, #3
43e02e88:	e2821003 	add	r1, r2, #3
43e02e8c:	e0844003 	add	r4, r4, r3
43e02e90:	e3a00000 	mov	r0, #0
43e02e94:	eafffe72 	b	43e02864 <_end+0x43b823d8>
43e02e98:	e5973000 	ldr	r3, [r7]
43e02e9c:	e353001b 	cmp	r3, #27
43e02ea0:	0afffad4 	beq	43e019f8 <_end+0x43b8156c>
43e02ea4:	e2878068 	add	r8, r7, #104	; 0x68
43e02ea8:	e2873e52 	add	r3, r7, #1312	; 0x520
43e02eac:	e283300c 	add	r3, r3, #12
43e02eb0:	e3a00001 	mov	r0, #1
43e02eb4:	e5873068 	str	r3, [r7, #104]	; 0x68
43e02eb8:	e287106c 	add	r1, r7, #108	; 0x6c
43e02ebc:	e5873048 	str	r3, [r7, #72]	; 0x48
43e02ec0:	e3a03009 	mov	r3, #9
43e02ec4:	e59d2038 	ldr	r2, [sp, #56]	; 0x38
43e02ec8:	e287c050 	add	ip, r7, #80	; 0x50
43e02ecc:	e5873050 	str	r3, [r7, #80]	; 0x50
43e02ed0:	e1a03008 	mov	r3, r8
43e02ed4:	e2879fbb 	add	r9, r7, #748	; 0x2ec
43e02ed8:	e58dc000 	str	ip, [sp]
43e02edc:	e58d9004 	str	r9, [sp, #4]
43e02ee0:	ebfff753 	bl	43e00c34 <_end+0x43b807a8>
43e02ee4:	e3500000 	cmp	r0, #0
43e02ee8:	e58d0014 	str	r0, [sp, #20]
43e02eec:	0a000037 	beq	43e02fd0 <_end+0x43b82b44>
43e02ef0:	e59d8010 	ldr	r8, [sp, #16]
43e02ef4:	e3a0201b 	mov	r2, #27
43e02ef8:	e51f15c0 	ldr	r1, [pc, #-1472]	; 43e02940 <_end+0x43b824b4>
43e02efc:	e1a03002 	mov	r3, r2
43e02f00:	e08f1001 	add	r1, pc, r1
43e02f04:	e5881018 	str	r1, [r8, #24]
43e02f08:	e5872000 	str	r2, [r7]
43e02f0c:	eafffab9 	b	43e019f8 <_end+0x43b8156c>
43e02f10:	e59d8010 	ldr	r8, [sp, #16]
43e02f14:	e3a03002 	mov	r3, #2
43e02f18:	e59dc024 	ldr	ip, [sp, #36]	; 0x24
43e02f1c:	e58d3014 	str	r3, [sp, #20]
43e02f20:	e588a000 	str	sl, [r8]
43e02f24:	e588c00c 	str	ip, [r8, #12]
43e02f28:	e59dc00c 	ldr	ip, [sp, #12]
43e02f2c:	e5885004 	str	r5, [r8, #4]
43e02f30:	e588c010 	str	ip, [r8, #16]
43e02f34:	e5876034 	str	r6, [r7, #52]	; 0x34
43e02f38:	e5874038 	str	r4, [r7, #56]	; 0x38
43e02f3c:	eafffbed 	b	43e01ef8 <_end+0x43b81a6c>
43e02f40:	e20cc00f 	and	ip, ip, #15
43e02f44:	e3a03013 	mov	r3, #19
43e02f48:	e587c044 	str	ip, [r7, #68]	; 0x44
43e02f4c:	e5873000 	str	r3, [r7]
43e02f50:	eafffb20 	b	43e01bd8 <_end+0x43b8174c>
43e02f54:	e1a06226 	lsr	r6, r6, #4
43e02f58:	e5972020 	ldr	r2, [r7, #32]
43e02f5c:	e206100f 	and	r1, r6, #15
43e02f60:	e2811008 	add	r1, r1, #8
43e02f64:	e1510002 	cmp	r1, r2
43e02f68:	9a000034 	bls	43e03040 <_end+0x43b82bb4>
43e02f6c:	e59d8010 	ldr	r8, [sp, #16]
43e02f70:	e3a0201b 	mov	r2, #27
43e02f74:	e51f1638 	ldr	r1, [pc, #-1592]	; 43e02944 <_end+0x43b824b8>
43e02f78:	e2444004 	sub	r4, r4, #4
43e02f7c:	e1a03002 	mov	r3, r2
43e02f80:	e08f1001 	add	r1, pc, r1
43e02f84:	e5881018 	str	r1, [r8, #24]
43e02f88:	e5872000 	str	r2, [r7]
43e02f8c:	eafffa99 	b	43e019f8 <_end+0x43b8156c>
43e02f90:	e59d3014 	ldr	r3, [sp, #20]
43e02f94:	e59dc020 	ldr	ip, [sp, #32]
43e02f98:	e2733001 	rsbs	r3, r3, #1
43e02f9c:	e59d8010 	ldr	r8, [sp, #16]
43e02fa0:	33a03000 	movcc	r3, #0
43e02fa4:	e58d3010 	str	r3, [sp, #16]
43e02fa8:	e35c0002 	cmp	ip, #2
43e02fac:	13a03000 	movne	r3, #0
43e02fb0:	02033001 	andeq	r3, r3, #1
43e02fb4:	e58d301c 	str	r3, [sp, #28]
43e02fb8:	eafffd33 	b	43e0248c <_end+0x43b82000>
43e02fbc:	e59d8014 	ldr	r8, [sp, #20]
43e02fc0:	e3a03011 	mov	r3, #17
43e02fc4:	e5873000 	str	r3, [r7]
43e02fc8:	e5878064 	str	r8, [r7, #100]	; 0x64
43e02fcc:	eafffde3 	b	43e02760 <_end+0x43b822d4>
43e02fd0:	e597105c 	ldr	r1, [r7, #92]	; 0x5c
43e02fd4:	e1a03008 	mov	r3, r8
43e02fd8:	e597c060 	ldr	ip, [r7, #96]	; 0x60
43e02fdc:	e3a02006 	mov	r2, #6
43e02fe0:	e597e068 	ldr	lr, [r7, #104]	; 0x68
43e02fe4:	e3a00002 	mov	r0, #2
43e02fe8:	e0871081 	add	r1, r7, r1, lsl #1
43e02fec:	e5872054 	str	r2, [r7, #84]	; 0x54
43e02ff0:	e281106c 	add	r1, r1, #108	; 0x6c
43e02ff4:	e1a0200c 	mov	r2, ip
43e02ff8:	e587e04c 	str	lr, [r7, #76]	; 0x4c
43e02ffc:	e287c054 	add	ip, r7, #84	; 0x54
43e03000:	e58d9004 	str	r9, [sp, #4]
43e03004:	e58dc000 	str	ip, [sp]
43e03008:	ebfff709 	bl	43e00c34 <_end+0x43b807a8>
43e0300c:	e3500000 	cmp	r0, #0
43e03010:	e58d0014 	str	r0, [sp, #20]
43e03014:	03a03012 	moveq	r3, #18
43e03018:	05873000 	streq	r3, [r7]
43e0301c:	0afffe26 	beq	43e028bc <_end+0x43b82430>
43e03020:	e59dc010 	ldr	ip, [sp, #16]
43e03024:	e3a0201b 	mov	r2, #27
43e03028:	e51f16e8 	ldr	r1, [pc, #-1768]	; 43e02948 <_end+0x43b824bc>
43e0302c:	e1a03002 	mov	r3, r2
43e03030:	e08f1001 	add	r1, pc, r1
43e03034:	e58c1018 	str	r1, [ip, #24]
43e03038:	e5872000 	str	r2, [r7]
43e0303c:	eafffa6d 	b	43e019f8 <_end+0x43b8156c>
43e03040:	e59dc010 	ldr	ip, [sp, #16]
43e03044:	e3160c02 	tst	r6, #512	; 0x200
43e03048:	e3a02001 	mov	r2, #1
43e0304c:	e1a04003 	mov	r4, r3
43e03050:	e1a01112 	lsl	r1, r2, r1
43e03054:	e5872018 	str	r2, [r7, #24]
43e03058:	03a0300b 	moveq	r3, #11
43e0305c:	13a03009 	movne	r3, #9
43e03060:	e5871014 	str	r1, [r7, #20]
43e03064:	e1a06004 	mov	r6, r4
43e03068:	e58c2028 	str	r2, [ip, #40]	; 0x28
43e0306c:	e5873000 	str	r3, [r7]
43e03070:	eafffa60 	b	43e019f8 <_end+0x43b8156c>
43e03074:	e59d8010 	ldr	r8, [sp, #16]
43e03078:	e3a02000 	mov	r2, #0
43e0307c:	e3a0301a 	mov	r3, #26
43e03080:	e58d201c 	str	r2, [sp, #28]
43e03084:	e5873000 	str	r3, [r7]
43e03088:	e3a03001 	mov	r3, #1
43e0308c:	e58d2010 	str	r2, [sp, #16]
43e03090:	e58d3014 	str	r3, [sp, #20]
43e03094:	eafffcfc 	b	43e0248c <_end+0x43b82000>
43e03098:	e59d8010 	ldr	r8, [sp, #16]
43e0309c:	e51f3758 	ldr	r3, [pc, #-1880]	; 43e0294c <_end+0x43b824c0>
43e030a0:	e08f3003 	add	r3, pc, r3
43e030a4:	e5883018 	str	r3, [r8, #24]
43e030a8:	e3a0301b 	mov	r3, #27
43e030ac:	e5873000 	str	r3, [r7]
43e030b0:	e3a0301b 	mov	r3, #27
43e030b4:	eafffa4f 	b	43e019f8 <_end+0x43b8156c>
43e030b8:	e59d8010 	ldr	r8, [sp, #16]
43e030bc:	e51f3774 	ldr	r3, [pc, #-1908]	; 43e02950 <_end+0x43b824c4>
43e030c0:	e08f3003 	add	r3, pc, r3
43e030c4:	e5883018 	str	r3, [r8, #24]
43e030c8:	e3a0301b 	mov	r3, #27
43e030cc:	e5873000 	str	r3, [r7]
43e030d0:	eafffff6 	b	43e030b0 <_end+0x43b82c24>
43e030d4:	e3a04000 	mov	r4, #0
43e030d8:	e59d8010 	ldr	r8, [sp, #16]
43e030dc:	e59db00c 	ldr	fp, [sp, #12]
43e030e0:	e1a06004 	mov	r6, r4
43e030e4:	eaffffe3 	b	43e03078 <_end+0x43b82bec>
43e030e8:	e3500000 	cmp	r0, #0
43e030ec:	0a000004 	beq	43e03104 <_end+0x43b82c78>
43e030f0:	e590301c 	ldr	r3, [r0, #28]
43e030f4:	e3530000 	cmp	r3, #0
43e030f8:	13a00000 	movne	r0, #0
43e030fc:	03e00001 	mvneq	r0, #1
43e03100:	e12fff1e 	bx	lr
43e03104:	e3e00001 	mvn	r0, #1
43e03108:	e12fff1e 	bx	lr
43e0310c:	e92d4ff0 	push	{r4, r5, r6, r7, r8, r9, sl, fp, lr}
43e03110:	e24dd00c 	sub	sp, sp, #12
43e03114:	e590201c 	ldr	r2, [r0, #28]
43e03118:	e1a04000 	mov	r4, r0
43e0311c:	e590500c 	ldr	r5, [r0, #12]
43e03120:	e5906010 	ldr	r6, [r0, #16]
43e03124:	e5923000 	ldr	r3, [r2]
43e03128:	e58d2004 	str	r2, [sp, #4]
43e0312c:	e3530000 	cmp	r3, #0
43e03130:	1353000b 	cmpne	r3, #11
43e03134:	03a03000 	moveq	r3, #0
43e03138:	13a03001 	movne	r3, #1
43e0313c:	13e00002 	mvnne	r0, #2
43e03140:	1a000081 	bne	43e0334c <_end+0x43b82ec0>
43e03144:	e5941004 	ldr	r1, [r4, #4]
43e03148:	e5942000 	ldr	r2, [r4]
43e0314c:	e5843010 	str	r3, [r4, #16]
43e03150:	e0823001 	add	r3, r2, r1
43e03154:	e584300c 	str	r3, [r4, #12]
43e03158:	ebfff683 	bl	43e00b6c <_end+0x43b806e0>
43e0315c:	e5948000 	ldr	r8, [r4]
43e03160:	e59d3004 	ldr	r3, [sp, #4]
43e03164:	e3580000 	cmp	r8, #0
43e03168:	e5846010 	str	r6, [r4, #16]
43e0316c:	e584500c 	str	r5, [r4, #12]
43e03170:	e594a004 	ldr	sl, [r4, #4]
43e03174:	e5936018 	ldr	r6, [r3, #24]
43e03178:	03a06001 	moveq	r6, #1
43e0317c:	0a00005e 	beq	43e032fc <_end+0x43b82e70>
43e03180:	e35a0000 	cmp	sl, #0
43e03184:	e6ffb076 	uxth	fp, r6
43e03188:	e1a06826 	lsr	r6, r6, #16
43e0318c:	0a000059 	beq	43e032f8 <_end+0x43b82e6c>
43e03190:	e3089071 	movw	r9, #32881	; 0x8071
43e03194:	e3489007 	movt	r9, #32775	; 0x8007
43e03198:	e30175b0 	movw	r7, #5552	; 0x15b0
43e0319c:	e15a0007 	cmp	sl, r7
43e031a0:	31a0700a 	movcc	r7, sl
43e031a4:	e357000f 	cmp	r7, #15
43e031a8:	e067a00a 	rsb	sl, r7, sl
43e031ac:	e1a00007 	mov	r0, r7
43e031b0:	da00003a 	ble	43e032a0 <_end+0x43b82e14>
43e031b4:	e1a02007 	mov	r2, r7
43e031b8:	e1a03008 	mov	r3, r8
43e031bc:	e5d31000 	ldrb	r1, [r3]
43e031c0:	e2422010 	sub	r2, r2, #16
43e031c4:	e5d3c001 	ldrb	ip, [r3, #1]
43e031c8:	e352000f 	cmp	r2, #15
43e031cc:	e081b00b 	add	fp, r1, fp
43e031d0:	e5d35002 	ldrb	r5, [r3, #2]
43e031d4:	e08b6006 	add	r6, fp, r6
43e031d8:	e08bb00c 	add	fp, fp, ip
43e031dc:	e5d3c003 	ldrb	ip, [r3, #3]
43e031e0:	e08b5005 	add	r5, fp, r5
43e031e4:	e5d30004 	ldrb	r0, [r3, #4]
43e031e8:	e086600b 	add	r6, r6, fp
43e031ec:	e085c00c 	add	ip, r5, ip
43e031f0:	e5d31005 	ldrb	r1, [r3, #5]
43e031f4:	e0866005 	add	r6, r6, r5
43e031f8:	e08c0000 	add	r0, ip, r0
43e031fc:	e5d3b006 	ldrb	fp, [r3, #6]
43e03200:	e086600c 	add	r6, r6, ip
43e03204:	e0801001 	add	r1, r0, r1
43e03208:	e5d3c007 	ldrb	ip, [r3, #7]
43e0320c:	e0866000 	add	r6, r6, r0
43e03210:	e081b00b 	add	fp, r1, fp
43e03214:	e5d30008 	ldrb	r0, [r3, #8]
43e03218:	e0866001 	add	r6, r6, r1
43e0321c:	e08bc00c 	add	ip, fp, ip
43e03220:	e5d31009 	ldrb	r1, [r3, #9]
43e03224:	e086600b 	add	r6, r6, fp
43e03228:	e08c0000 	add	r0, ip, r0
43e0322c:	e5d3500a 	ldrb	r5, [r3, #10]
43e03230:	e086600c 	add	r6, r6, ip
43e03234:	e0801001 	add	r1, r0, r1
43e03238:	e5d3c00b 	ldrb	ip, [r3, #11]
43e0323c:	e0866000 	add	r6, r6, r0
43e03240:	e0815005 	add	r5, r1, r5
43e03244:	e0866001 	add	r6, r6, r1
43e03248:	e5d3000c 	ldrb	r0, [r3, #12]
43e0324c:	e085c00c 	add	ip, r5, ip
43e03250:	e5d3100d 	ldrb	r1, [r3, #13]
43e03254:	e0865005 	add	r5, r6, r5
43e03258:	e08c0000 	add	r0, ip, r0
43e0325c:	e5d3600e 	ldrb	r6, [r3, #14]
43e03260:	e085500c 	add	r5, r5, ip
43e03264:	e0801001 	add	r1, r0, r1
43e03268:	e5d3b00f 	ldrb	fp, [r3, #15]
43e0326c:	e0855000 	add	r5, r5, r0
43e03270:	e0816006 	add	r6, r1, r6
43e03274:	e0855001 	add	r5, r5, r1
43e03278:	e086b00b 	add	fp, r6, fp
43e0327c:	e0856006 	add	r6, r5, r6
43e03280:	e2833010 	add	r3, r3, #16
43e03284:	e086600b 	add	r6, r6, fp
43e03288:	caffffcb 	bgt	43e031bc <_end+0x43b82d30>
43e0328c:	e2477010 	sub	r7, r7, #16
43e03290:	e1a03227 	lsr	r3, r7, #4
43e03294:	e2832001 	add	r2, r3, #1
43e03298:	e0470203 	sub	r0, r7, r3, lsl #4
43e0329c:	e0888202 	add	r8, r8, r2, lsl #4
43e032a0:	e3500000 	cmp	r0, #0
43e032a4:	0a000007 	beq	43e032c8 <_end+0x43b82e3c>
43e032a8:	e1a03000 	mov	r3, r0
43e032ac:	e1a02008 	mov	r2, r8
43e032b0:	e4d21001 	ldrb	r1, [r2], #1
43e032b4:	e2533001 	subs	r3, r3, #1
43e032b8:	e08bb001 	add	fp, fp, r1
43e032bc:	e086600b 	add	r6, r6, fp
43e032c0:	1afffffa 	bne	43e032b0 <_end+0x43b82e24>
43e032c4:	e0888000 	add	r8, r8, r0
43e032c8:	e082cb99 	umull	ip, r2, r9, fp
43e032cc:	e35a0000 	cmp	sl, #0
43e032d0:	e0831699 	umull	r1, r3, r9, r6
43e032d4:	e1a027a2 	lsr	r2, r2, #15
43e032d8:	e0621602 	rsb	r1, r2, r2, lsl #12
43e032dc:	e1a037a3 	lsr	r3, r3, #15
43e032e0:	e0822201 	add	r2, r2, r1, lsl #4
43e032e4:	e0631603 	rsb	r1, r3, r3, lsl #12
43e032e8:	e062b00b 	rsb	fp, r2, fp
43e032ec:	e0833201 	add	r3, r3, r1, lsl #4
43e032f0:	e0636006 	rsb	r6, r3, r6
43e032f4:	1affffa7 	bne	43e03198 <_end+0x43b82d0c>
43e032f8:	e18b6806 	orr	r6, fp, r6, lsl #16
43e032fc:	e59d2004 	ldr	r2, [sp, #4]
43e03300:	e5826018 	str	r6, [r2, #24]
43e03304:	e3a02000 	mov	r2, #0
43e03308:	e5943004 	ldr	r3, [r4, #4]
43e0330c:	e1a00002 	mov	r0, r2
43e03310:	e594c008 	ldr	ip, [r4, #8]
43e03314:	e5945014 	ldr	r5, [r4, #20]
43e03318:	e08cc003 	add	ip, ip, r3
43e0331c:	e584c008 	str	ip, [r4, #8]
43e03320:	e59dc004 	ldr	ip, [sp, #4]
43e03324:	e0855003 	add	r5, r5, r3
43e03328:	e5941000 	ldr	r1, [r4]
43e0332c:	e5846028 	str	r6, [r4, #40]	; 0x28
43e03330:	e0811003 	add	r1, r1, r3
43e03334:	e5845014 	str	r5, [r4, #20]
43e03338:	e5841000 	str	r1, [r4]
43e0333c:	e59c101c 	ldr	r1, [ip, #28]
43e03340:	e0813003 	add	r3, r1, r3
43e03344:	e58c301c 	str	r3, [ip, #28]
43e03348:	e5842004 	str	r2, [r4, #4]
43e0334c:	e28dd00c 	add	sp, sp, #12
43e03350:	e8bd8ff0 	pop	{r4, r5, r6, r7, r8, r9, sl, fp, pc}
43e03354:	e92d47f0 	push	{r4, r5, r6, r7, r8, r9, sl, lr}
43e03358:	e2526000 	subs	r6, r2, #0
43e0335c:	e59f42bc 	ldr	r4, [pc, #700]	; 43e03620 <_end+0x43b83194>
43e03360:	e1a05000 	mov	r5, r0
43e03364:	e1a07001 	mov	r7, r1
43e03368:	e1a0a003 	mov	sl, r3
43e0336c:	e08f4004 	add	r4, pc, r4
43e03370:	0a000099 	beq	43e035dc <_end+0x43b83150>
43e03374:	e3500000 	cmp	r0, #0
43e03378:	11a09000 	movne	r9, r0
43e0337c:	0a00007f 	beq	43e03580 <_end+0x43b830f4>
43e03380:	e3a00030 	mov	r0, #48	; 0x30
43e03384:	ebfff5d2 	bl	43e00ad4 <_end+0x43b80648>
43e03388:	e2508000 	subs	r8, r0, #0
43e0338c:	0a000085 	beq	43e035a8 <_end+0x43b8311c>
43e03390:	e302052c 	movw	r0, #9516	; 0x252c
43e03394:	ebfff5ce 	bl	43e00ad4 <_end+0x43b80648>
43e03398:	e3500000 	cmp	r0, #0
43e0339c:	e5880020 	str	r0, [r8, #32]
43e033a0:	0a000085 	beq	43e035bc <_end+0x43b83130>
43e033a4:	e3570000 	cmp	r7, #0
43e033a8:	0a00006f 	beq	43e0356c <_end+0x43b830e0>
43e033ac:	e3570009 	cmp	r7, #9
43e033b0:	ca000030 	bgt	43e03478 <_end+0x43b82fec>
43e033b4:	e59f0268 	ldr	r0, [pc, #616]	; 43e03624 <_end+0x43b83198>
43e033b8:	e3e06000 	mvn	r6, #0
43e033bc:	e08f0000 	add	r0, pc, r0
43e033c0:	e12fff3a 	blx	sl
43e033c4:	e59f325c 	ldr	r3, [pc, #604]	; 43e03628 <_end+0x43b8319c>
43e033c8:	e7943003 	ldr	r3, [r4, r3]
43e033cc:	e5932000 	ldr	r2, [r3]
43e033d0:	e2422001 	sub	r2, r2, #1
43e033d4:	e5832000 	str	r2, [r3]
43e033d8:	e3520000 	cmp	r2, #0
43e033dc:	0a00000d 	beq	43e03418 <_end+0x43b82f8c>
43e033e0:	e2422001 	sub	r2, r2, #1
43e033e4:	e5832000 	str	r2, [r3]
43e033e8:	e3520000 	cmp	r2, #0
43e033ec:	1a000005 	bne	43e03408 <_end+0x43b82f7c>
43e033f0:	e59f3234 	ldr	r3, [pc, #564]	; 43e0362c <_end+0x43b831a0>
43e033f4:	e7942003 	ldr	r2, [r4, r3]
43e033f8:	e59f3230 	ldr	r3, [pc, #560]	; 43e03630 <_end+0x43b831a4>
43e033fc:	e5922000 	ldr	r2, [r2]
43e03400:	e7943003 	ldr	r3, [r4, r3]
43e03404:	e5832000 	str	r2, [r3]
43e03408:	e3550000 	cmp	r5, #0
43e0340c:	0a00000b 	beq	43e03440 <_end+0x43b82fb4>
43e03410:	e1a00006 	mov	r0, r6
43e03414:	e8bd87f0 	pop	{r4, r5, r6, r7, r8, r9, sl, pc}
43e03418:	e59f220c 	ldr	r2, [pc, #524]	; 43e0362c <_end+0x43b831a0>
43e0341c:	e3e00000 	mvn	r0, #0
43e03420:	e3550000 	cmp	r5, #0
43e03424:	e7941002 	ldr	r1, [r4, r2]
43e03428:	e59f2200 	ldr	r2, [pc, #512]	; 43e03630 <_end+0x43b831a4>
43e0342c:	e7942002 	ldr	r2, [r4, r2]
43e03430:	e5830000 	str	r0, [r3]
43e03434:	e5913000 	ldr	r3, [r1]
43e03438:	e5823000 	str	r3, [r2]
43e0343c:	1afffff3 	bne	43e03410 <_end+0x43b82f84>
43e03440:	e59f31e0 	ldr	r3, [pc, #480]	; 43e03628 <_end+0x43b8319c>
43e03444:	e7942003 	ldr	r2, [r4, r3]
43e03448:	e5923000 	ldr	r3, [r2]
43e0344c:	e2433001 	sub	r3, r3, #1
43e03450:	e5823000 	str	r3, [r2]
43e03454:	e3530000 	cmp	r3, #0
43e03458:	1affffec 	bne	43e03410 <_end+0x43b82f84>
43e0345c:	e59f31c8 	ldr	r3, [pc, #456]	; 43e0362c <_end+0x43b831a0>
43e03460:	e7942003 	ldr	r2, [r4, r3]
43e03464:	e59f31c4 	ldr	r3, [pc, #452]	; 43e03630 <_end+0x43b831a4>
43e03468:	e5922000 	ldr	r2, [r2]
43e0346c:	e7943003 	ldr	r3, [r4, r3]
43e03470:	e5832000 	str	r2, [r3]
43e03474:	eaffffe5 	b	43e03410 <_end+0x43b82f84>
43e03478:	e5d93000 	ldrb	r3, [r9]
43e0347c:	e353001f 	cmp	r3, #31
43e03480:	1affffcb 	bne	43e033b4 <_end+0x43b82f28>
43e03484:	e5d93001 	ldrb	r3, [r9, #1]
43e03488:	e353008b 	cmp	r3, #139	; 0x8b
43e0348c:	1affffc8 	bne	43e033b4 <_end+0x43b82f28>
43e03490:	e5d93002 	ldrb	r3, [r9, #2]
43e03494:	e3530008 	cmp	r3, #8
43e03498:	1affffc5 	bne	43e033b4 <_end+0x43b82f28>
43e0349c:	e289300a 	add	r3, r9, #10
43e034a0:	e247700a 	sub	r7, r7, #10
43e034a4:	e8880088 	stm	r8, {r3, r7}
43e034a8:	e5d93003 	ldrb	r3, [r9, #3]
43e034ac:	e3130008 	tst	r3, #8
43e034b0:	0a000008 	beq	43e034d8 <_end+0x43b8304c>
43e034b4:	e3570000 	cmp	r7, #0
43e034b8:	e2477001 	sub	r7, r7, #1
43e034bc:	0a00004b 	beq	43e035f0 <_end+0x43b83164>
43e034c0:	e5983000 	ldr	r3, [r8]
43e034c4:	e5887004 	str	r7, [r8, #4]
43e034c8:	e4d32001 	ldrb	r2, [r3], #1
43e034cc:	e3520000 	cmp	r2, #0
43e034d0:	e5883000 	str	r3, [r8]
43e034d4:	1afffff6 	bne	43e034b4 <_end+0x43b83028>
43e034d8:	e3e03102 	mvn	r3, #-2147483648	; 0x80000000
43e034dc:	e588600c 	str	r6, [r8, #12]
43e034e0:	e5883010 	str	r3, [r8, #16]
43e034e4:	e1a00008 	mov	r0, r8
43e034e8:	e3e0100e 	mvn	r1, #14
43e034ec:	ebfff8fd 	bl	43e018e8 <_end+0x43b8145c>
43e034f0:	e5982020 	ldr	r2, [r8, #32]
43e034f4:	e3a03000 	mov	r3, #0
43e034f8:	e5823024 	str	r3, [r2, #36]	; 0x24
43e034fc:	e5982020 	ldr	r2, [r8, #32]
43e03500:	e5823030 	str	r3, [r2, #48]	; 0x30
43e03504:	e2506000 	subs	r6, r0, #0
43e03508:	1a000014 	bne	43e03560 <_end+0x43b830d4>
43e0350c:	e5983004 	ldr	r3, [r8, #4]
43e03510:	e3a01901 	mov	r1, #16384	; 0x4000
43e03514:	e1a00009 	mov	r0, r9
43e03518:	e3530000 	cmp	r3, #0
43e0351c:	1a000004 	bne	43e03534 <_end+0x43b830a8>
43e03520:	ebfff58f 	bl	43e00b64 <_end+0x43b806d8>
43e03524:	e3500000 	cmp	r0, #0
43e03528:	ba000035 	blt	43e03604 <_end+0x43b83178>
43e0352c:	e5889000 	str	r9, [r8]
43e03530:	e5880004 	str	r0, [r8, #4]
43e03534:	e1a00008 	mov	r0, r8
43e03538:	e3a01000 	mov	r1, #0
43e0353c:	ebfff901 	bl	43e01948 <_end+0x43b814bc>
43e03540:	e3500001 	cmp	r0, #1
43e03544:	0a000005 	beq	43e03560 <_end+0x43b830d4>
43e03548:	e3500000 	cmp	r0, #0
43e0354c:	0affffee 	beq	43e0350c <_end+0x43b83080>
43e03550:	e59f00dc 	ldr	r0, [pc, #220]	; 43e03634 <_end+0x43b831a8>
43e03554:	e3e06000 	mvn	r6, #0
43e03558:	e08f0000 	add	r0, pc, r0
43e0355c:	e12fff3a 	blx	sl
43e03560:	e1a00008 	mov	r0, r8
43e03564:	ebfffedf 	bl	43e030e8 <_end+0x43b82c5c>
43e03568:	eaffff95 	b	43e033c4 <_end+0x43b82f38>
43e0356c:	e1a00009 	mov	r0, r9
43e03570:	e3a01901 	mov	r1, #16384	; 0x4000
43e03574:	ebfff57a 	bl	43e00b64 <_end+0x43b806d8>
43e03578:	e1a07000 	mov	r7, r0
43e0357c:	eaffff8a 	b	43e033ac <_end+0x43b82f20>
43e03580:	e3a00901 	mov	r0, #16384	; 0x4000
43e03584:	ebfff552 	bl	43e00ad4 <_end+0x43b80648>
43e03588:	e2509000 	subs	r9, r0, #0
43e0358c:	1a000021 	bne	43e03618 <_end+0x43b8318c>
43e03590:	e59f00a0 	ldr	r0, [pc, #160]	; 43e03638 <_end+0x43b831ac>
43e03594:	e3e06000 	mvn	r6, #0
43e03598:	e08f0000 	add	r0, pc, r0
43e0359c:	e12fff3a 	blx	sl
43e035a0:	e1a00006 	mov	r0, r6
43e035a4:	e8bd87f0 	pop	{r4, r5, r6, r7, r8, r9, sl, pc}
43e035a8:	e59f008c 	ldr	r0, [pc, #140]	; 43e0363c <_end+0x43b831b0>
43e035ac:	e3e06000 	mvn	r6, #0
43e035b0:	e08f0000 	add	r0, pc, r0
43e035b4:	e12fff3a 	blx	sl
43e035b8:	eaffff92 	b	43e03408 <_end+0x43b82f7c>
43e035bc:	e59f007c 	ldr	r0, [pc, #124]	; 43e03640 <_end+0x43b831b4>
43e035c0:	e3e06000 	mvn	r6, #0
43e035c4:	e08f0000 	add	r0, pc, r0
43e035c8:	e12fff3a 	blx	sl
43e035cc:	e59f3054 	ldr	r3, [pc, #84]	; 43e03628 <_end+0x43b8319c>
43e035d0:	e7943003 	ldr	r3, [r4, r3]
43e035d4:	e5932000 	ldr	r2, [r3]
43e035d8:	eaffff80 	b	43e033e0 <_end+0x43b82f54>
43e035dc:	e59f0060 	ldr	r0, [pc, #96]	; 43e03644 <_end+0x43b831b8>
43e035e0:	e3e06000 	mvn	r6, #0
43e035e4:	e08f0000 	add	r0, pc, r0
43e035e8:	e12fff33 	blx	r3
43e035ec:	eaffff87 	b	43e03410 <_end+0x43b82f84>
43e035f0:	e59f0050 	ldr	r0, [pc, #80]	; 43e03648 <_end+0x43b831bc>
43e035f4:	e3e06000 	mvn	r6, #0
43e035f8:	e08f0000 	add	r0, pc, r0
43e035fc:	e12fff3a 	blx	sl
43e03600:	eaffff6f 	b	43e033c4 <_end+0x43b82f38>
43e03604:	e59f0040 	ldr	r0, [pc, #64]	; 43e0364c <_end+0x43b831c0>
43e03608:	e3e06000 	mvn	r6, #0
43e0360c:	e08f0000 	add	r0, pc, r0
43e03610:	e12fff3a 	blx	sl
43e03614:	eaffffd1 	b	43e03560 <_end+0x43b830d4>
43e03618:	e1a07005 	mov	r7, r5
43e0361c:	eaffff57 	b	43e03380 <_end+0x43b82ef4>
43e03620:	0027d0bc 	strheq	sp, [r7], -ip	; <UNPREDICTABLE>
43e03624:	000032e4 	andeq	r3, r0, r4, ror #5
43e03628:	00000014 	andeq	r0, r0, r4, lsl r0
43e0362c:	0000002c 	andeq	r0, r0, ip, lsr #32
43e03630:	00000008 	andeq	r0, r0, r8
43e03634:	00003174 	andeq	r3, r0, r4, ror r1
43e03638:	00003088 	andeq	r3, r0, r8, lsl #1
43e0363c:	0000309c 	muleq	r0, ip, r0
43e03640:	000030b0 	strheq	r3, [r0], -r0
43e03644:	0000300c 	andeq	r3, r0, ip
43e03648:	000030b8 	strheq	r3, [r0], -r8
43e0364c:	000030b4 	strheq	r3, [r0], -r4
43e03650:	e92d4070 	push	{r4, r5, r6, lr}
43e03654:	e1a041a2 	lsr	r4, r2, #3
43e03658:	e1a0c001 	mov	ip, r1
43e0365c:	e1a03000 	mov	r3, r0
43e03660:	e1a05004 	mov	r5, r4
43e03664:	ea000012 	b	43e036b4 <_end+0x43b83228>
43e03668:	e5dc6000 	ldrb	r6, [ip]
43e0366c:	e2455001 	sub	r5, r5, #1
43e03670:	e5c36000 	strb	r6, [r3]
43e03674:	e5dc6001 	ldrb	r6, [ip, #1]
43e03678:	e5c36001 	strb	r6, [r3, #1]
43e0367c:	e5dc6002 	ldrb	r6, [ip, #2]
43e03680:	e5c36002 	strb	r6, [r3, #2]
43e03684:	e5dc6003 	ldrb	r6, [ip, #3]
43e03688:	e5c36003 	strb	r6, [r3, #3]
43e0368c:	e5dc6004 	ldrb	r6, [ip, #4]
43e03690:	e5c36004 	strb	r6, [r3, #4]
43e03694:	e5dc6005 	ldrb	r6, [ip, #5]
43e03698:	e5c36005 	strb	r6, [r3, #5]
43e0369c:	e5dc6006 	ldrb	r6, [ip, #6]
43e036a0:	e5c36006 	strb	r6, [r3, #6]
43e036a4:	e5dc6007 	ldrb	r6, [ip, #7]
43e036a8:	e28cc008 	add	ip, ip, #8
43e036ac:	e5c36007 	strb	r6, [r3, #7]
43e036b0:	e2833008 	add	r3, r3, #8
43e036b4:	e3550000 	cmp	r5, #0
43e036b8:	caffffea 	bgt	43e03668 <_end+0x43b831dc>
43e036bc:	e1c44fc4 	bic	r4, r4, r4, asr #31
43e036c0:	e3120004 	tst	r2, #4
43e036c4:	e1a0c184 	lsl	ip, r4, #3
43e036c8:	e080300c 	add	r3, r0, ip
43e036cc:	e081c00c 	add	ip, r1, ip
43e036d0:	0a000009 	beq	43e036fc <_end+0x43b83270>
43e036d4:	e7d11184 	ldrb	r1, [r1, r4, lsl #3]
43e036d8:	e7c01184 	strb	r1, [r0, r4, lsl #3]
43e036dc:	e5dc1001 	ldrb	r1, [ip, #1]
43e036e0:	e5c31001 	strb	r1, [r3, #1]
43e036e4:	e5dc1002 	ldrb	r1, [ip, #2]
43e036e8:	e5c31002 	strb	r1, [r3, #2]
43e036ec:	e5dc1003 	ldrb	r1, [ip, #3]
43e036f0:	e28cc004 	add	ip, ip, #4
43e036f4:	e5c31003 	strb	r1, [r3, #3]
43e036f8:	e2833004 	add	r3, r3, #4
43e036fc:	e3120002 	tst	r2, #2
43e03700:	0a000005 	beq	43e0371c <_end+0x43b83290>
43e03704:	e5dc1000 	ldrb	r1, [ip]
43e03708:	e5c31000 	strb	r1, [r3]
43e0370c:	e5dc1001 	ldrb	r1, [ip, #1]
43e03710:	e28cc002 	add	ip, ip, #2
43e03714:	e5c31001 	strb	r1, [r3, #1]
43e03718:	e2833002 	add	r3, r3, #2
43e0371c:	e3120001 	tst	r2, #1
43e03720:	15dc2000 	ldrbne	r2, [ip]
43e03724:	15c32000 	strbne	r2, [r3]
43e03728:	e8bd8070 	pop	{r4, r5, r6, pc}
43e0372c:	e1500001 	cmp	r0, r1
43e03730:	e1a0c000 	mov	ip, r0
43e03734:	e92d4010 	push	{r4, lr}
43e03738:	e1a03002 	mov	r3, r2
43e0373c:	e1a04001 	mov	r4, r1
43e03740:	0a000007 	beq	43e03764 <_end+0x43b832d8>
43e03744:	2a000004 	bcs	43e0375c <_end+0x43b832d0>
43e03748:	e8bd4010 	pop	{r4, lr}
43e0374c:	eaffffbf 	b	43e03650 <_end+0x43b831c4>
43e03750:	e2433001 	sub	r3, r3, #1
43e03754:	e7d42003 	ldrb	r2, [r4, r3]
43e03758:	e7cc2003 	strb	r2, [ip, r3]
43e0375c:	e3530000 	cmp	r3, #0
43e03760:	1afffffa 	bne	43e03750 <_end+0x43b832c4>
43e03764:	e1a0000c 	mov	r0, ip
43e03768:	e8bd8010 	pop	{r4, pc}
43e0376c:	e1a03000 	mov	r3, r0
43e03770:	e1a02003 	mov	r2, r3
43e03774:	e2833001 	add	r3, r3, #1
43e03778:	e5d21000 	ldrb	r1, [r2]
43e0377c:	e3510000 	cmp	r1, #0
43e03780:	1afffffa 	bne	43e03770 <_end+0x43b832e4>
43e03784:	e0600002 	rsb	r0, r0, r2
43e03788:	e12fff1e 	bx	lr
43e0378c:	e0802002 	add	r2, r0, r2
43e03790:	e1a03000 	mov	r3, r0
43e03794:	ea000004 	b	43e037ac <_end+0x43b83320>
43e03798:	e5d0c000 	ldrb	ip, [r0]
43e0379c:	e2833001 	add	r3, r3, #1
43e037a0:	e4d10001 	ldrb	r0, [r1], #1
43e037a4:	e05c0000 	subs	r0, ip, r0
43e037a8:	112fff1e 	bxne	lr
43e037ac:	e1530002 	cmp	r3, r2
43e037b0:	e1a00003 	mov	r0, r3
43e037b4:	3afffff7 	bcc	43e03798 <_end+0x43b8330c>
43e037b8:	e3a00000 	mov	r0, #0
43e037bc:	e12fff1e 	bx	lr
43e037c0:	e1a03000 	mov	r3, r0
43e037c4:	e4d32001 	ldrb	r2, [r3], #1
43e037c8:	e4d10001 	ldrb	r0, [r1], #1
43e037cc:	e0520000 	subs	r0, r2, r0
43e037d0:	112fff1e 	bxne	lr
43e037d4:	e3520000 	cmp	r2, #0
43e037d8:	1afffff9 	bne	43e037c4 <_end+0x43b83338>
43e037dc:	e12fff1e 	bx	lr
43e037e0:	e6ef1071 	uxtb	r1, r1
43e037e4:	ea000005 	b	43e03800 <_end+0x43b83374>
43e037e8:	e5d0c000 	ldrb	ip, [r0]
43e037ec:	e2803001 	add	r3, r0, #1
43e037f0:	e2422001 	sub	r2, r2, #1
43e037f4:	e15c0001 	cmp	ip, r1
43e037f8:	012fff1e 	bxeq	lr
43e037fc:	e1a00003 	mov	r0, r3
43e03800:	e3520000 	cmp	r2, #0
43e03804:	1afffff7 	bne	43e037e8 <_end+0x43b8335c>
43e03808:	e1a00002 	mov	r0, r2
43e0380c:	e12fff1e 	bx	lr
43e03810:	e1a03000 	mov	r3, r0
43e03814:	e6ef1071 	uxtb	r1, r1
43e03818:	ea000001 	b	43e03824 <_end+0x43b83398>
43e0381c:	e3520000 	cmp	r2, #0
43e03820:	0a000005 	beq	43e0383c <_end+0x43b833b0>
43e03824:	e5d32000 	ldrb	r2, [r3]
43e03828:	e1a00003 	mov	r0, r3
43e0382c:	e2833001 	add	r3, r3, #1
43e03830:	e1520001 	cmp	r2, r1
43e03834:	1afffff8 	bne	43e0381c <_end+0x43b83390>
43e03838:	e12fff1e 	bx	lr
43e0383c:	e1a00002 	mov	r0, r2
43e03840:	e12fff1e 	bx	lr
43e03844:	e3a03000 	mov	r3, #0
43e03848:	ea000001 	b	43e03854 <_end+0x43b833c8>
43e0384c:	e7c01003 	strb	r1, [r0, r3]
43e03850:	e2833001 	add	r3, r3, #1
43e03854:	e1530002 	cmp	r3, r2
43e03858:	1afffffb 	bne	43e0384c <_end+0x43b833c0>
43e0385c:	e12fff1e 	bx	lr
43e03860:	e1a02001 	mov	r2, r1
43e03864:	e3a01000 	mov	r1, #0
43e03868:	eafffff5 	b	43e03844 <_end+0x43b833b8>
	...
43e03880:	e10f4000 	mrs	r4, CPSR
43e03884:	e204401f 	and	r4, r4, #31
43e03888:	e1540004 	cmp	r4, r4
43e0388c:	11a0f00e 	movne	pc, lr
43e03890:	e354001a 	cmp	r4, #26
43e03894:	11a0f00e 	movne	pc, lr
43e03898:	e28f7040 	add	r7, pc, #64	; 0x40
43e0389c:	ee8c7f10 	mcr	15, 4, r7, cr12, cr0, {0}
43e038a0:	e3a07000 	mov	r7, #0
43e038a4:	ee817f11 	mcr	15, 4, r7, cr1, cr1, {0}
43e038a8:	ee817f51 	mcr	15, 4, r7, cr1, cr1, {2}
43e038ac:	ee817f71 	mcr	15, 4, r7, cr1, cr1, {3}
43e038b0:	ee817f10 	mcr	15, 4, r7, cr1, cr0, {0}
43e038b4:	ee917f31 	mrc	15, 4, r7, cr1, cr1, {1}
43e038b8:	e207701f 	and	r7, r7, #31
43e038bc:	ee817f31 	mcr	15, 4, r7, cr1, cr1, {1}
43e038c0:	e12fff1e 	bx	lr
43e038c4:	e3700001 	cmn	r0, #1
43e038c8:	0e9c0f10 	mrceq	15, 4, r0, cr12, cr0, {0}
43e038cc:	1e8c0f10 	mcrne	15, 4, r0, cr12, cr0, {0}
43e038d0:	e160006e 	eret
43e038d4:	e3e00000 	mvn	r0, #0
43e038d8:	e1400070 	hvc	0
43e038dc:	e1a0f00e 	mov	pc, lr
43e038e0:	eafffffe 	b	43e038e0 <_end+0x43b83454>
43e038e4:	eafffffe 	b	43e038e4 <_end+0x43b83458>
43e038e8:	eafffffe 	b	43e038e8 <_end+0x43b8345c>
43e038ec:	eafffffe 	b	43e038ec <_end+0x43b83460>
43e038f0:	eafffffe 	b	43e038f0 <_end+0x43b83464>
43e038f4:	eafffff2 	b	43e038c4 <_end+0x43b83438>
43e038f8:	eafffffe 	b	43e038f8 <_end+0x43b8346c>
43e038fc:	eafffffe 	b	43e038fc <_end+0x43b83470>
43e03900:	e92d41f0 	push	{r4, r5, r6, r7, r8, lr}
43e03904:	e1a04001 	mov	r4, r1
43e03908:	e1a05000 	mov	r5, r0
43e0390c:	e2827028 	add	r7, r2, #40	; 0x28
43e03910:	e1a06003 	mov	r6, r3
43e03914:	e5901010 	ldr	r1, [r0, #16]
43e03918:	e2840028 	add	r0, r4, #40	; 0x28
43e0391c:	e0878003 	add	r8, r7, r3
43e03920:	e6bf1f31 	rev	r1, r1
43e03924:	e0851001 	add	r1, r5, r1
43e03928:	ebffff7f 	bl	43e0372c <_end+0x43b832a0>
43e0392c:	e3a0330a 	mov	r3, #671088640	; 0x28000000
43e03930:	e1a02006 	mov	r2, r6
43e03934:	e5843010 	str	r3, [r4, #16]
43e03938:	e0840007 	add	r0, r4, r7
43e0393c:	e5951008 	ldr	r1, [r5, #8]
43e03940:	e6bf1f31 	rev	r1, r1
43e03944:	e0851001 	add	r1, r5, r1
43e03948:	ebffff77 	bl	43e0372c <_end+0x43b832a0>
43e0394c:	e0840008 	add	r0, r4, r8
43e03950:	e6bf7f37 	rev	r7, r7
43e03954:	e6bf6f36 	rev	r6, r6
43e03958:	e5847008 	str	r7, [r4, #8]
43e0395c:	e5846024 	str	r6, [r4, #36]	; 0x24
43e03960:	e595100c 	ldr	r1, [r5, #12]
43e03964:	e5952020 	ldr	r2, [r5, #32]
43e03968:	e6bf1f31 	rev	r1, r1
43e0396c:	e6bf2f32 	rev	r2, r2
43e03970:	e0851001 	add	r1, r5, r1
43e03974:	ebffff6c 	bl	43e0372c <_end+0x43b832a0>
43e03978:	e6bf8f38 	rev	r8, r8
43e0397c:	e584800c 	str	r8, [r4, #12]
43e03980:	e5953020 	ldr	r3, [r5, #32]
43e03984:	e6bf3f33 	rev	r3, r3
43e03988:	e6bf3f33 	rev	r3, r3
43e0398c:	e5843020 	str	r3, [r4, #32]
43e03990:	e8bd81f0 	pop	{r4, r5, r6, r7, r8, pc}
43e03994:	e091c002 	adds	ip, r1, r2
43e03998:	e92d4070 	push	{r4, r5, r6, lr}
43e0399c:	e590400c 	ldr	r4, [r0, #12]
43e039a0:	e5905020 	ldr	r5, [r0, #32]
43e039a4:	e6bf4f34 	rev	r4, r4
43e039a8:	e6bf5f35 	rev	r5, r5
43e039ac:	2a000013 	bcs	43e03a00 <_end+0x43b83574>
43e039b0:	e0854004 	add	r4, r5, r4
43e039b4:	e0804004 	add	r4, r0, r4
43e039b8:	e154000c 	cmp	r4, ip
43e039bc:	3a00000f 	bcc	43e03a00 <_end+0x43b83574>
43e039c0:	e0625003 	rsb	r5, r2, r3
43e039c4:	e5906004 	ldr	r6, [r0, #4]
43e039c8:	e0845005 	add	r5, r4, r5
43e039cc:	e6bf6f36 	rev	r6, r6
43e039d0:	e0800006 	add	r0, r0, r6
43e039d4:	e1550000 	cmp	r5, r0
43e039d8:	8a000006 	bhi	43e039f8 <_end+0x43b8356c>
43e039dc:	e0614004 	rsb	r4, r1, r4
43e039e0:	e0810003 	add	r0, r1, r3
43e039e4:	e0622004 	rsb	r2, r2, r4
43e039e8:	e1a0100c 	mov	r1, ip
43e039ec:	ebffff4e 	bl	43e0372c <_end+0x43b832a0>
43e039f0:	e3a00000 	mov	r0, #0
43e039f4:	e8bd8070 	pop	{r4, r5, r6, pc}
43e039f8:	e3e00002 	mvn	r0, #2
43e039fc:	e8bd8070 	pop	{r4, r5, r6, pc}
43e03a00:	e3e00003 	mvn	r0, #3
43e03a04:	e8bd8070 	pop	{r4, r5, r6, pc}
43e03a08:	e92d4070 	push	{r4, r5, r6, lr}
43e03a0c:	e1a04000 	mov	r4, r0
43e03a10:	e1a05002 	mov	r5, r2
43e03a14:	e1a06003 	mov	r6, r3
43e03a18:	ebffffdd 	bl	43e03994 <_end+0x43b83508>
43e03a1c:	e3500000 	cmp	r0, #0
43e03a20:	18bd8070 	popne	{r4, r5, r6, pc}
43e03a24:	e0655006 	rsb	r5, r5, r6
43e03a28:	e5943024 	ldr	r3, [r4, #36]	; 0x24
43e03a2c:	e594600c 	ldr	r6, [r4, #12]
43e03a30:	e6bf3f33 	rev	r3, r3
43e03a34:	e6bf6f36 	rev	r6, r6
43e03a38:	e0833005 	add	r3, r3, r5
43e03a3c:	e0865005 	add	r5, r6, r5
43e03a40:	e6bf3f33 	rev	r3, r3
43e03a44:	e6bf5f35 	rev	r5, r5
43e03a48:	e5843024 	str	r3, [r4, #36]	; 0x24
43e03a4c:	e584500c 	str	r5, [r4, #12]
43e03a50:	e8bd8070 	pop	{r4, r5, r6, pc}
43e03a54:	e92d4070 	push	{r4, r5, r6, lr}
43e03a58:	e1a05002 	mov	r5, r2
43e03a5c:	e1a06003 	mov	r6, r3
43e03a60:	e1a02202 	lsl	r2, r2, #4
43e03a64:	e1a03203 	lsl	r3, r3, #4
43e03a68:	e1a04000 	mov	r4, r0
43e03a6c:	ebffffc8 	bl	43e03994 <_end+0x43b83508>
43e03a70:	e3500000 	cmp	r0, #0
43e03a74:	18bd8070 	popne	{r4, r5, r6, pc}
43e03a78:	e0655006 	rsb	r5, r5, r6
43e03a7c:	e5943008 	ldr	r3, [r4, #8]
43e03a80:	e594200c 	ldr	r2, [r4, #12]
43e03a84:	e1a05205 	lsl	r5, r5, #4
43e03a88:	e6bf6f32 	rev	r6, r2
43e03a8c:	e6bf3f33 	rev	r3, r3
43e03a90:	e0833005 	add	r3, r3, r5
43e03a94:	e0865005 	add	r5, r6, r5
43e03a98:	e6bf3f33 	rev	r3, r3
43e03a9c:	e6bf5f35 	rev	r5, r5
43e03aa0:	e5843008 	str	r3, [r4, #8]
43e03aa4:	e584500c 	str	r5, [r4, #12]
43e03aa8:	e8bd8070 	pop	{r4, r5, r6, pc}
43e03aac:	e92d4ff0 	push	{r4, r5, r6, r7, r8, r9, sl, fp, lr}
43e03ab0:	e24dd00c 	sub	sp, sp, #12
43e03ab4:	e1a04000 	mov	r4, r0
43e03ab8:	e1a07002 	mov	r7, r2
43e03abc:	e1a0a003 	mov	sl, r3
43e03ac0:	e59d6030 	ldr	r6, [sp, #48]	; 0x30
43e03ac4:	eb0005fb 	bl	43e052b8 <_end+0x43b84e2c>
43e03ac8:	e2505000 	subs	r5, r0, #0
43e03acc:	ba000026 	blt	43e03b6c <_end+0x43b836e0>
43e03ad0:	e1a00007 	mov	r0, r7
43e03ad4:	e594800c 	ldr	r8, [r4, #12]
43e03ad8:	ebffff23 	bl	43e0376c <_end+0x43b832e0>
43e03adc:	e5941020 	ldr	r1, [r4, #32]
43e03ae0:	e6bf8f38 	rev	r8, r8
43e03ae4:	e0848008 	add	r8, r4, r8
43e03ae8:	e1a02007 	mov	r2, r7
43e03aec:	e6bf1f31 	rev	r1, r1
43e03af0:	e1a0b000 	mov	fp, r0
43e03af4:	e1a00008 	mov	r0, r8
43e03af8:	eb000640 	bl	43e05400 <_end+0x43b84f74>
43e03afc:	e2502000 	subs	r2, r0, #0
43e03b00:	10689002 	rsbne	r9, r8, r2
43e03b04:	0a00001b 	beq	43e03b78 <_end+0x43b836ec>
43e03b08:	e3590000 	cmp	r9, #0
43e03b0c:	b1a05009 	movlt	r5, r9
43e03b10:	ba000015 	blt	43e03b6c <_end+0x43b836e0>
43e03b14:	e28a3003 	add	r3, sl, #3
43e03b18:	e5941008 	ldr	r1, [r4, #8]
43e03b1c:	e3c33003 	bic	r3, r3, #3
43e03b20:	e1a00004 	mov	r0, r4
43e03b24:	e6bf1f31 	rev	r1, r1
43e03b28:	e0815005 	add	r5, r1, r5
43e03b2c:	e3a02000 	mov	r2, #0
43e03b30:	e0841005 	add	r1, r4, r5
43e03b34:	e283300c 	add	r3, r3, #12
43e03b38:	e5861000 	str	r1, [r6]
43e03b3c:	ebffffb1 	bl	43e03a08 <_end+0x43b8357c>
43e03b40:	e2505000 	subs	r5, r0, #0
43e03b44:	1a000008 	bne	43e03b6c <_end+0x43b836e0>
43e03b48:	e5963000 	ldr	r3, [r6]
43e03b4c:	e3a02403 	mov	r2, #50331648	; 0x3000000
43e03b50:	e6bf9f39 	rev	r9, r9
43e03b54:	e6bfaf3a 	rev	sl, sl
43e03b58:	e5832000 	str	r2, [r3]
43e03b5c:	e5963000 	ldr	r3, [r6]
43e03b60:	e5839008 	str	r9, [r3, #8]
43e03b64:	e5963000 	ldr	r3, [r6]
43e03b68:	e583a004 	str	sl, [r3, #4]
43e03b6c:	e1a00005 	mov	r0, r5
43e03b70:	e28dd00c 	add	sp, sp, #12
43e03b74:	e8bd8ff0 	pop	{r4, r5, r6, r7, r8, r9, sl, fp, pc}
43e03b78:	e28bb001 	add	fp, fp, #1
43e03b7c:	e594c020 	ldr	ip, [r4, #32]
43e03b80:	e594100c 	ldr	r1, [r4, #12]
43e03b84:	e1a00004 	mov	r0, r4
43e03b88:	e6bfcf3c 	rev	ip, ip
43e03b8c:	e6bf1f31 	rev	r1, r1
43e03b90:	e08c1001 	add	r1, ip, r1
43e03b94:	e1a0300b 	mov	r3, fp
43e03b98:	e0841001 	add	r1, r4, r1
43e03b9c:	e58dc004 	str	ip, [sp, #4]
43e03ba0:	ebffff7b 	bl	43e03994 <_end+0x43b83508>
43e03ba4:	e59dc004 	ldr	ip, [sp, #4]
43e03ba8:	e2509000 	subs	r9, r0, #0
43e03bac:	1affffd5 	bne	43e03b08 <_end+0x43b8367c>
43e03bb0:	e088900c 	add	r9, r8, ip
43e03bb4:	e5943020 	ldr	r3, [r4, #32]
43e03bb8:	e1a0200b 	mov	r2, fp
43e03bbc:	e1a01007 	mov	r1, r7
43e03bc0:	e6bf3f33 	rev	r3, r3
43e03bc4:	e1a00009 	mov	r0, r9
43e03bc8:	e083b00b 	add	fp, r3, fp
43e03bcc:	e6bfbf3b 	rev	fp, fp
43e03bd0:	e584b020 	str	fp, [r4, #32]
43e03bd4:	e0689009 	rsb	r9, r8, r9
43e03bd8:	ebfffe9c 	bl	43e03650 <_end+0x43b831c4>
43e03bdc:	eaffffc9 	b	43e03b08 <_end+0x43b8367c>
43e03be0:	e5903010 	ldr	r3, [r0, #16]
43e03be4:	e6bf3f33 	rev	r3, r3
43e03be8:	e3530027 	cmp	r3, #39	; 0x27
43e03bec:	9a000014 	bls	43e03c44 <_end+0x43b837b8>
43e03bf0:	e0833001 	add	r3, r3, r1
43e03bf4:	e590c008 	ldr	ip, [r0, #8]
43e03bf8:	e6bfcf3c 	rev	ip, ip
43e03bfc:	e15c0003 	cmp	ip, r3
43e03c00:	3a00000d 	bcc	43e03c3c <_end+0x43b837b0>
43e03c04:	e08cc002 	add	ip, ip, r2
43e03c08:	e590300c 	ldr	r3, [r0, #12]
43e03c0c:	e6bf3f33 	rev	r3, r3
43e03c10:	e153000c 	cmp	r3, ip
43e03c14:	3a000008 	bcc	43e03c3c <_end+0x43b837b0>
43e03c18:	e5902020 	ldr	r2, [r0, #32]
43e03c1c:	e6bf2f32 	rev	r2, r2
43e03c20:	e0823003 	add	r3, r2, r3
43e03c24:	e5900004 	ldr	r0, [r0, #4]
43e03c28:	e6bf0f30 	rev	r0, r0
43e03c2c:	e1500003 	cmp	r0, r3
43e03c30:	23a00000 	movcs	r0, #0
43e03c34:	33a00001 	movcc	r0, #1
43e03c38:	e12fff1e 	bx	lr
43e03c3c:	e3a00001 	mov	r0, #1
43e03c40:	e12fff1e 	bx	lr
43e03c44:	e3a00001 	mov	r0, #1
43e03c48:	e12fff1e 	bx	lr
43e03c4c:	e92d4070 	push	{r4, r5, r6, lr}
43e03c50:	e1a04000 	mov	r4, r0
43e03c54:	eb000529 	bl	43e05100 <_end+0x43b84c74>
43e03c58:	e2505000 	subs	r5, r0, #0
43e03c5c:	1a00000f 	bne	43e03ca0 <_end+0x43b83814>
43e03c60:	e5946014 	ldr	r6, [r4, #20]
43e03c64:	e6bf6f36 	rev	r6, r6
43e03c68:	e3560010 	cmp	r6, #16
43e03c6c:	93e05009 	mvnls	r5, #9
43e03c70:	9a00000a 	bls	43e03ca0 <_end+0x43b83814>
43e03c74:	e5942024 	ldr	r2, [r4, #36]	; 0x24
43e03c78:	e1a00004 	mov	r0, r4
43e03c7c:	e6bf2f32 	rev	r2, r2
43e03c80:	e3a01010 	mov	r1, #16
43e03c84:	ebffffd5 	bl	43e03be0 <_end+0x43b83754>
43e03c88:	e3500000 	cmp	r0, #0
43e03c8c:	13e0500b 	mvnne	r5, #11
43e03c90:	1a000002 	bne	43e03ca0 <_end+0x43b83814>
43e03c94:	e3560011 	cmp	r6, #17
43e03c98:	83a03411 	movhi	r3, #285212672	; 0x11000000
43e03c9c:	85843014 	strhi	r3, [r4, #20]
43e03ca0:	e1a00005 	mov	r0, r5
43e03ca4:	e8bd8070 	pop	{r4, r5, r6, pc}
43e03ca8:	e92d4ff8 	push	{r3, r4, r5, r6, r7, r8, r9, sl, fp, lr}
43e03cac:	e1a0a000 	mov	sl, r0
43e03cb0:	e1a05002 	mov	r5, r2
43e03cb4:	e1a07003 	mov	r7, r3
43e03cb8:	e59d6028 	ldr	r6, [sp, #40]	; 0x28
43e03cbc:	e59d802c 	ldr	r8, [sp, #44]	; 0x2c
43e03cc0:	ebffffe1 	bl	43e03c4c <_end+0x43b837c0>
43e03cc4:	e2504000 	subs	r4, r0, #0
43e03cc8:	0a000001 	beq	43e03cd4 <_end+0x43b83848>
43e03ccc:	e1a00004 	mov	r0, r4
43e03cd0:	e8bd8ff8 	pop	{r3, r4, r5, r6, r7, r8, r9, sl, fp, pc}
43e03cd4:	e1a0000a 	mov	r0, sl
43e03cd8:	eb00020d 	bl	43e04514 <_end+0x43b84088>
43e03cdc:	e59a9010 	ldr	r9, [sl, #16]
43e03ce0:	e6bf9f39 	rev	r9, r9
43e03ce4:	e08a9009 	add	r9, sl, r9
43e03ce8:	e1a02004 	mov	r2, r4
43e03cec:	e3a03001 	mov	r3, #1
43e03cf0:	e1a0b200 	lsl	fp, r0, #4
43e03cf4:	e1a0000a 	mov	r0, sl
43e03cf8:	e089a00b 	add	sl, r9, fp
43e03cfc:	e1a0100a 	mov	r1, sl
43e03d00:	ebffff53 	bl	43e03a54 <_end+0x43b835c8>
43e03d04:	e3500000 	cmp	r0, #0
43e03d08:	11a04000 	movne	r4, r0
43e03d0c:	1affffee 	bne	43e03ccc <_end+0x43b83840>
43e03d10:	e6bf5f35 	rev	r5, r5
43e03d14:	e6bf6f36 	rev	r6, r6
43e03d18:	e6bf7f37 	rev	r7, r7
43e03d1c:	e1a03005 	mov	r3, r5
43e03d20:	e1842007 	orr	r2, r4, r7
43e03d24:	e6bf8f38 	rev	r8, r8
43e03d28:	e18920fb 	strd	r2, [r9, fp]
43e03d2c:	e1840008 	orr	r0, r4, r8
43e03d30:	e1a01006 	mov	r1, r6
43e03d34:	e1ca00f8 	strd	r0, [sl, #8]
43e03d38:	e1a00004 	mov	r0, r4
43e03d3c:	e8bd8ff8 	pop	{r3, r4, r5, r6, r7, r8, r9, sl, fp, pc}
43e03d40:	e92d41f0 	push	{r4, r5, r6, r7, r8, lr}
43e03d44:	e1a05000 	mov	r5, r0
43e03d48:	e5907010 	ldr	r7, [r0, #16]
43e03d4c:	e1a06001 	mov	r6, r1
43e03d50:	ebffffbd 	bl	43e03c4c <_end+0x43b837c0>
43e03d54:	e6bf7f37 	rev	r7, r7
43e03d58:	e2504000 	subs	r4, r0, #0
43e03d5c:	0a000001 	beq	43e03d68 <_end+0x43b838dc>
43e03d60:	e1a00004 	mov	r0, r4
43e03d64:	e8bd81f0 	pop	{r4, r5, r6, r7, r8, pc}
43e03d68:	e1a00005 	mov	r0, r5
43e03d6c:	eb0001e8 	bl	43e04514 <_end+0x43b84088>
43e03d70:	e1560000 	cmp	r6, r0
43e03d74:	aa000006 	bge	43e03d94 <_end+0x43b83908>
43e03d78:	e0851007 	add	r1, r5, r7
43e03d7c:	e1a00005 	mov	r0, r5
43e03d80:	e0811206 	add	r1, r1, r6, lsl #4
43e03d84:	e3a02001 	mov	r2, #1
43e03d88:	e1a03004 	mov	r3, r4
43e03d8c:	e8bd41f0 	pop	{r4, r5, r6, r7, r8, lr}
43e03d90:	eaffff2f 	b	43e03a54 <_end+0x43b835c8>
43e03d94:	e3e04000 	mvn	r4, #0
43e03d98:	eafffff0 	b	43e03d60 <_end+0x43b838d4>
43e03d9c:	e92d41f0 	push	{r4, r5, r6, r7, r8, lr}
43e03da0:	e24dd008 	sub	sp, sp, #8
43e03da4:	e1a08000 	mov	r8, r0
43e03da8:	e1a06001 	mov	r6, r1
43e03dac:	e1a05002 	mov	r5, r2
43e03db0:	ebffffa5 	bl	43e03c4c <_end+0x43b837c0>
43e03db4:	e2504000 	subs	r4, r0, #0
43e03db8:	0a000002 	beq	43e03dc8 <_end+0x43b8393c>
43e03dbc:	e1a00004 	mov	r0, r4
43e03dc0:	e28dd008 	add	sp, sp, #8
43e03dc4:	e8bd81f0 	pop	{r4, r5, r6, r7, r8, pc}
43e03dc8:	e1a01006 	mov	r1, r6
43e03dcc:	e1a00008 	mov	r0, r8
43e03dd0:	e28d2004 	add	r2, sp, #4
43e03dd4:	eb000226 	bl	43e04674 <_end+0x43b841e8>
43e03dd8:	e2506000 	subs	r6, r0, #0
43e03ddc:	059d4004 	ldreq	r4, [sp, #4]
43e03de0:	0afffff5 	beq	43e03dbc <_end+0x43b83930>
43e03de4:	e1a00005 	mov	r0, r5
43e03de8:	ebfffe5f 	bl	43e0376c <_end+0x43b832e0>
43e03dec:	e59d2004 	ldr	r2, [sp, #4]
43e03df0:	e1a01006 	mov	r1, r6
43e03df4:	e2822004 	add	r2, r2, #4
43e03df8:	e3c22003 	bic	r2, r2, #3
43e03dfc:	e2803004 	add	r3, r0, #4
43e03e00:	e1a07000 	mov	r7, r0
43e03e04:	e3c33003 	bic	r3, r3, #3
43e03e08:	e1a00008 	mov	r0, r8
43e03e0c:	ebfffefd 	bl	43e03a08 <_end+0x43b8357c>
43e03e10:	e3500000 	cmp	r0, #0
43e03e14:	11a04000 	movne	r4, r0
43e03e18:	1affffe7 	bne	43e03dbc <_end+0x43b83930>
43e03e1c:	e1a00006 	mov	r0, r6
43e03e20:	e1a01005 	mov	r1, r5
43e03e24:	e2872001 	add	r2, r7, #1
43e03e28:	ebfffe08 	bl	43e03650 <_end+0x43b831c4>
43e03e2c:	eaffffe2 	b	43e03dbc <_end+0x43b83930>
43e03e30:	e92d45f0 	push	{r4, r5, r6, r7, r8, sl, lr}
43e03e34:	e24dd014 	sub	sp, sp, #20
43e03e38:	e1a05000 	mov	r5, r0
43e03e3c:	e1a07001 	mov	r7, r1
43e03e40:	e1a06002 	mov	r6, r2
43e03e44:	e1a08003 	mov	r8, r3
43e03e48:	e59da030 	ldr	sl, [sp, #48]	; 0x30
43e03e4c:	ebffff7e 	bl	43e03c4c <_end+0x43b837c0>
43e03e50:	e2504000 	subs	r4, r0, #0
43e03e54:	0a000002 	beq	43e03e64 <_end+0x43b839d8>
43e03e58:	e1a00004 	mov	r0, r4
43e03e5c:	e28dd014 	add	sp, sp, #20
43e03e60:	e8bd85f0 	pop	{r4, r5, r6, r7, r8, sl, pc}
43e03e64:	e1a01007 	mov	r1, r7
43e03e68:	e1a00005 	mov	r0, r5
43e03e6c:	e1a02006 	mov	r2, r6
43e03e70:	e28d300c 	add	r3, sp, #12
43e03e74:	eb00026d 	bl	43e04830 <_end+0x43b843a4>
43e03e78:	e3500000 	cmp	r0, #0
43e03e7c:	e1a01000 	mov	r1, r0
43e03e80:	e58d0008 	str	r0, [sp, #8]
43e03e84:	059d000c 	ldreq	r0, [sp, #12]
43e03e88:	0a000011 	beq	43e03ed4 <_end+0x43b83a48>
43e03e8c:	e59d200c 	ldr	r2, [sp, #12]
43e03e90:	e28a3003 	add	r3, sl, #3
43e03e94:	e1a00005 	mov	r0, r5
43e03e98:	e281100c 	add	r1, r1, #12
43e03e9c:	e2822003 	add	r2, r2, #3
43e03ea0:	e3c33003 	bic	r3, r3, #3
43e03ea4:	e3c22003 	bic	r2, r2, #3
43e03ea8:	ebfffed6 	bl	43e03a08 <_end+0x43b8357c>
43e03eac:	e3500000 	cmp	r0, #0
43e03eb0:	1a000007 	bne	43e03ed4 <_end+0x43b83a48>
43e03eb4:	e59d0008 	ldr	r0, [sp, #8]
43e03eb8:	e6bf3f3a 	rev	r3, sl
43e03ebc:	e5803004 	str	r3, [r0, #4]
43e03ec0:	e1a01008 	mov	r1, r8
43e03ec4:	e1a0200a 	mov	r2, sl
43e03ec8:	e280000c 	add	r0, r0, #12
43e03ecc:	ebfffddf 	bl	43e03650 <_end+0x43b831c4>
43e03ed0:	eaffffe0 	b	43e03e58 <_end+0x43b839cc>
43e03ed4:	e3700001 	cmn	r0, #1
43e03ed8:	0a000004 	beq	43e03ef0 <_end+0x43b83a64>
43e03edc:	e3500000 	cmp	r0, #0
43e03ee0:	11a04000 	movne	r4, r0
43e03ee4:	1affffdb 	bne	43e03e58 <_end+0x43b839cc>
43e03ee8:	e59d0008 	ldr	r0, [sp, #8]
43e03eec:	eafffff3 	b	43e03ec0 <_end+0x43b83a34>
43e03ef0:	e1a00005 	mov	r0, r5
43e03ef4:	e1a01007 	mov	r1, r7
43e03ef8:	e1a02006 	mov	r2, r6
43e03efc:	e1a0300a 	mov	r3, sl
43e03f00:	e28dc008 	add	ip, sp, #8
43e03f04:	e58dc000 	str	ip, [sp]
43e03f08:	ebfffee7 	bl	43e03aac <_end+0x43b83620>
43e03f0c:	eafffff2 	b	43e03edc <_end+0x43b83a50>
43e03f10:	e92d45f0 	push	{r4, r5, r6, r7, r8, sl, lr}
43e03f14:	e24dd014 	sub	sp, sp, #20
43e03f18:	e1a05000 	mov	r5, r0
43e03f1c:	e1a07001 	mov	r7, r1
43e03f20:	e1a06002 	mov	r6, r2
43e03f24:	e1a08003 	mov	r8, r3
43e03f28:	e59da030 	ldr	sl, [sp, #48]	; 0x30
43e03f2c:	ebffff46 	bl	43e03c4c <_end+0x43b837c0>
43e03f30:	e2504000 	subs	r4, r0, #0
43e03f34:	0a000002 	beq	43e03f44 <_end+0x43b83ab8>
43e03f38:	e1a00004 	mov	r0, r4
43e03f3c:	e28dd014 	add	sp, sp, #20
43e03f40:	e8bd85f0 	pop	{r4, r5, r6, r7, r8, sl, pc}
43e03f44:	e1a01007 	mov	r1, r7
43e03f48:	e1a00005 	mov	r0, r5
43e03f4c:	e1a02006 	mov	r2, r6
43e03f50:	e28d300c 	add	r3, sp, #12
43e03f54:	eb000235 	bl	43e04830 <_end+0x43b843a4>
43e03f58:	e3500000 	cmp	r0, #0
43e03f5c:	e1a01000 	mov	r1, r0
43e03f60:	e58d0008 	str	r0, [sp, #8]
43e03f64:	0a000014 	beq	43e03fbc <_end+0x43b83b30>
43e03f68:	e59d200c 	ldr	r2, [sp, #12]
43e03f6c:	e1a00005 	mov	r0, r5
43e03f70:	e281100c 	add	r1, r1, #12
43e03f74:	e08a5002 	add	r5, sl, r2
43e03f78:	e2822003 	add	r2, r2, #3
43e03f7c:	e2853003 	add	r3, r5, #3
43e03f80:	e3c22003 	bic	r2, r2, #3
43e03f84:	e3c33003 	bic	r3, r3, #3
43e03f88:	ebfffe9e 	bl	43e03a08 <_end+0x43b8357c>
43e03f8c:	e3500000 	cmp	r0, #0
43e03f90:	1a000012 	bne	43e03fe0 <_end+0x43b83b54>
43e03f94:	e59d3008 	ldr	r3, [sp, #8]
43e03f98:	e1a01008 	mov	r1, r8
43e03f9c:	e59d000c 	ldr	r0, [sp, #12]
43e03fa0:	e1a0200a 	mov	r2, sl
43e03fa4:	e6bf5f35 	rev	r5, r5
43e03fa8:	e0830000 	add	r0, r3, r0
43e03fac:	e5835004 	str	r5, [r3, #4]
43e03fb0:	e280000c 	add	r0, r0, #12
43e03fb4:	ebfffda5 	bl	43e03650 <_end+0x43b831c4>
43e03fb8:	eaffffde 	b	43e03f38 <_end+0x43b83aac>
43e03fbc:	e1a00005 	mov	r0, r5
43e03fc0:	e1a01007 	mov	r1, r7
43e03fc4:	e1a02006 	mov	r2, r6
43e03fc8:	e1a0300a 	mov	r3, sl
43e03fcc:	e28dc008 	add	ip, sp, #8
43e03fd0:	e58dc000 	str	ip, [sp]
43e03fd4:	ebfffeb4 	bl	43e03aac <_end+0x43b83620>
43e03fd8:	e3500000 	cmp	r0, #0
43e03fdc:	0a000001 	beq	43e03fe8 <_end+0x43b83b5c>
43e03fe0:	e1a04000 	mov	r4, r0
43e03fe4:	eaffffd3 	b	43e03f38 <_end+0x43b83aac>
43e03fe8:	e59d0008 	ldr	r0, [sp, #8]
43e03fec:	e1a01008 	mov	r1, r8
43e03ff0:	e1a0200a 	mov	r2, sl
43e03ff4:	e280000c 	add	r0, r0, #12
43e03ff8:	ebfffd94 	bl	43e03650 <_end+0x43b831c4>
43e03ffc:	eaffffcd 	b	43e03f38 <_end+0x43b83aac>
43e04000:	e92d40f0 	push	{r4, r5, r6, r7, lr}
43e04004:	e24dd00c 	sub	sp, sp, #12
43e04008:	e1a05000 	mov	r5, r0
43e0400c:	e1a07001 	mov	r7, r1
43e04010:	e1a06002 	mov	r6, r2
43e04014:	ebffff0c 	bl	43e03c4c <_end+0x43b837c0>
43e04018:	e2504000 	subs	r4, r0, #0
43e0401c:	0a000002 	beq	43e0402c <_end+0x43b83ba0>
43e04020:	e1a00004 	mov	r0, r4
43e04024:	e28dd00c 	add	sp, sp, #12
43e04028:	e8bd80f0 	pop	{r4, r5, r6, r7, pc}
43e0402c:	e1a01007 	mov	r1, r7
43e04030:	e1a00005 	mov	r0, r5
43e04034:	e1a02006 	mov	r2, r6
43e04038:	e28d3004 	add	r3, sp, #4
43e0403c:	eb0001fb 	bl	43e04830 <_end+0x43b843a4>
43e04040:	e2501000 	subs	r1, r0, #0
43e04044:	059d4004 	ldreq	r4, [sp, #4]
43e04048:	0afffff4 	beq	43e04020 <_end+0x43b83b94>
43e0404c:	e59d2004 	ldr	r2, [sp, #4]
43e04050:	e1a03004 	mov	r3, r4
43e04054:	e1a00005 	mov	r0, r5
43e04058:	e2822003 	add	r2, r2, #3
43e0405c:	e3c22003 	bic	r2, r2, #3
43e04060:	e282200c 	add	r2, r2, #12
43e04064:	ebfffe67 	bl	43e03a08 <_end+0x43b8357c>
43e04068:	e1a04000 	mov	r4, r0
43e0406c:	eaffffeb 	b	43e04020 <_end+0x43b83b94>
43e04070:	e92d4ff0 	push	{r4, r5, r6, r7, r8, r9, sl, fp, lr}
43e04074:	e24dd00c 	sub	sp, sp, #12
43e04078:	e1a04000 	mov	r4, r0
43e0407c:	e1a08001 	mov	r8, r1
43e04080:	e1a06002 	mov	r6, r2
43e04084:	e1a05003 	mov	r5, r3
43e04088:	ebfffeef 	bl	43e03c4c <_end+0x43b837c0>
43e0408c:	e3500000 	cmp	r0, #0
43e04090:	0a000001 	beq	43e0409c <_end+0x43b83c10>
43e04094:	e28dd00c 	add	sp, sp, #12
43e04098:	e8bd8ff0 	pop	{r4, r5, r6, r7, r8, r9, sl, fp, pc}
43e0409c:	e1a00004 	mov	r0, r4
43e040a0:	e1a01008 	mov	r1, r8
43e040a4:	e1a02006 	mov	r2, r6
43e040a8:	e1a03005 	mov	r3, r5
43e040ac:	eb00012d 	bl	43e04568 <_end+0x43b840dc>
43e040b0:	e3500000 	cmp	r0, #0
43e040b4:	a3e00001 	mvnge	r0, #1
43e040b8:	aafffff5 	bge	43e04094 <_end+0x43b83c08>
43e040bc:	e3700001 	cmn	r0, #1
43e040c0:	1afffff3 	bne	43e04094 <_end+0x43b83c08>
43e040c4:	e1a00004 	mov	r0, r4
43e040c8:	e1a01008 	mov	r1, r8
43e040cc:	e28d2004 	add	r2, sp, #4
43e040d0:	eb00043b 	bl	43e051c4 <_end+0x43b84d38>
43e040d4:	e59d7004 	ldr	r7, [sp, #4]
43e040d8:	e1a00004 	mov	r0, r4
43e040dc:	e28d2004 	add	r2, sp, #4
43e040e0:	e1a01007 	mov	r1, r7
43e040e4:	eb000436 	bl	43e051c4 <_end+0x43b84d38>
43e040e8:	e2400003 	sub	r0, r0, #3
43e040ec:	e3500001 	cmp	r0, #1
43e040f0:	9afffff7 	bls	43e040d4 <_end+0x43b83c48>
43e040f4:	e5949008 	ldr	r9, [r4, #8]
43e040f8:	e2858004 	add	r8, r5, #4
43e040fc:	e6bf9f39 	rev	r9, r9
43e04100:	e0879009 	add	r9, r7, r9
43e04104:	e3c88003 	bic	r8, r8, #3
43e04108:	e084a009 	add	sl, r4, r9
43e0410c:	e1a00004 	mov	r0, r4
43e04110:	e3a02000 	mov	r2, #0
43e04114:	e2883008 	add	r3, r8, #8
43e04118:	e1a0100a 	mov	r1, sl
43e0411c:	ebfffe39 	bl	43e03a08 <_end+0x43b8357c>
43e04120:	e3500000 	cmp	r0, #0
43e04124:	1affffda 	bne	43e04094 <_end+0x43b83c08>
43e04128:	e3580000 	cmp	r8, #0
43e0412c:	e3a03401 	mov	r3, #16777216	; 0x1000000
43e04130:	e28ab004 	add	fp, sl, #4
43e04134:	e7843009 	str	r3, [r4, r9]
43e04138:	1a000008 	bne	43e04160 <_end+0x43b83cd4>
43e0413c:	e08a8008 	add	r8, sl, r8
43e04140:	e1a0000b 	mov	r0, fp
43e04144:	e1a01006 	mov	r1, r6
43e04148:	e1a02005 	mov	r2, r5
43e0414c:	ebfffd3f 	bl	43e03650 <_end+0x43b831c4>
43e04150:	e3a03402 	mov	r3, #33554432	; 0x2000000
43e04154:	e1a00007 	mov	r0, r7
43e04158:	e5883004 	str	r3, [r8, #4]
43e0415c:	eaffffcc 	b	43e04094 <_end+0x43b83c08>
43e04160:	e1a0000b 	mov	r0, fp
43e04164:	e1a01008 	mov	r1, r8
43e04168:	ebfffdbc 	bl	43e03860 <_end+0x43b833d4>
43e0416c:	eafffff2 	b	43e0413c <_end+0x43b83cb0>
43e04170:	e92d4070 	push	{r4, r5, r6, lr}
43e04174:	e1a05000 	mov	r5, r0
43e04178:	e1a00002 	mov	r0, r2
43e0417c:	e1a04002 	mov	r4, r2
43e04180:	e1a06001 	mov	r6, r1
43e04184:	ebfffd78 	bl	43e0376c <_end+0x43b832e0>
43e04188:	e1a01006 	mov	r1, r6
43e0418c:	e1a02004 	mov	r2, r4
43e04190:	e1a03000 	mov	r3, r0
43e04194:	e1a00005 	mov	r0, r5
43e04198:	e8bd4070 	pop	{r4, r5, r6, lr}
43e0419c:	eaffffb3 	b	43e04070 <_end+0x43b83be4>
43e041a0:	e92d4070 	push	{r4, r5, r6, lr}
43e041a4:	e1a06000 	mov	r6, r0
43e041a8:	e1a05001 	mov	r5, r1
43e041ac:	ebfffea6 	bl	43e03c4c <_end+0x43b837c0>
43e041b0:	e2504000 	subs	r4, r0, #0
43e041b4:	0a000001 	beq	43e041c0 <_end+0x43b83d34>
43e041b8:	e1a00004 	mov	r0, r4
43e041bc:	e8bd8070 	pop	{r4, r5, r6, pc}
43e041c0:	e1a00006 	mov	r0, r6
43e041c4:	e1a01005 	mov	r1, r5
43e041c8:	eb0003a5 	bl	43e05064 <_end+0x43b84bd8>
43e041cc:	e2502000 	subs	r2, r0, #0
43e041d0:	ba000008 	blt	43e041f8 <_end+0x43b83d6c>
43e041d4:	e5961008 	ldr	r1, [r6, #8]
43e041d8:	e1a00006 	mov	r0, r6
43e041dc:	e6bf1f31 	rev	r1, r1
43e041e0:	e0811005 	add	r1, r1, r5
43e041e4:	e0652002 	rsb	r2, r5, r2
43e041e8:	e0861001 	add	r1, r6, r1
43e041ec:	e1a03004 	mov	r3, r4
43e041f0:	e8bd4070 	pop	{r4, r5, r6, lr}
43e041f4:	eafffe03 	b	43e03a08 <_end+0x43b8357c>
43e041f8:	e1a04002 	mov	r4, r2
43e041fc:	eaffffed 	b	43e041b8 <_end+0x43b83d2c>
43e04200:	e92d4ff0 	push	{r4, r5, r6, r7, r8, r9, sl, fp, lr}
43e04204:	e24dd00c 	sub	sp, sp, #12
43e04208:	e590a004 	ldr	sl, [r0, #4]
43e0420c:	e1a04000 	mov	r4, r0
43e04210:	e1a05001 	mov	r5, r1
43e04214:	e1a07002 	mov	r7, r2
43e04218:	eb0003b8 	bl	43e05100 <_end+0x43b84c74>
43e0421c:	e6bfaf3a 	rev	sl, sl
43e04220:	e2506000 	subs	r6, r0, #0
43e04224:	0a000002 	beq	43e04234 <_end+0x43b83da8>
43e04228:	e1a00006 	mov	r0, r6
43e0422c:	e28dd00c 	add	sp, sp, #12
43e04230:	e8bd8ff0 	pop	{r4, r5, r6, r7, r8, r9, sl, fp, pc}
43e04234:	e1a00004 	mov	r0, r4
43e04238:	eb0000b5 	bl	43e04514 <_end+0x43b84088>
43e0423c:	e5943014 	ldr	r3, [r4, #20]
43e04240:	e6bf3f33 	rev	r3, r3
43e04244:	e3530010 	cmp	r3, #16
43e04248:	928d8008 	addls	r8, sp, #8
43e0424c:	91a01006 	movls	r1, r6
43e04250:	95286004 	strls	r6, [r8, #-4]!
43e04254:	e1a09000 	mov	r9, r0
43e04258:	9a000004 	bls	43e04270 <_end+0x43b83de4>
43e0425c:	e5948024 	ldr	r8, [r4, #36]	; 0x24
43e04260:	e6bf8f38 	rev	r8, r8
43e04264:	e58d8004 	str	r8, [sp, #4]
43e04268:	ea000009 	b	43e04294 <_end+0x43b83e08>
43e0426c:	e59d1004 	ldr	r1, [sp, #4]
43e04270:	e1a00004 	mov	r0, r4
43e04274:	e1a02008 	mov	r2, r8
43e04278:	eb0003d1 	bl	43e051c4 <_end+0x43b84d38>
43e0427c:	e3500009 	cmp	r0, #9
43e04280:	1afffff9 	bne	43e0426c <_end+0x43b83de0>
43e04284:	e59d8004 	ldr	r8, [sp, #4]
43e04288:	e3580000 	cmp	r8, #0
43e0428c:	b1a06008 	movlt	r6, r8
43e04290:	baffffe4 	blt	43e04228 <_end+0x43b83d9c>
43e04294:	e2899001 	add	r9, r9, #1
43e04298:	e1a00004 	mov	r0, r4
43e0429c:	e1a02008 	mov	r2, r8
43e042a0:	e1a09209 	lsl	r9, r9, #4
43e042a4:	e1a01009 	mov	r1, r9
43e042a8:	ebfffe4c 	bl	43e03be0 <_end+0x43b83754>
43e042ac:	e3500000 	cmp	r0, #0
43e042b0:	0a00002a 	beq	43e04360 <_end+0x43b83ed4>
43e042b4:	e289b028 	add	fp, r9, #40	; 0x28
43e042b8:	e5943020 	ldr	r3, [r4, #32]
43e042bc:	e08bb008 	add	fp, fp, r8
43e042c0:	e6bf3f33 	rev	r3, r3
43e042c4:	e08bb003 	add	fp, fp, r3
43e042c8:	e157000b 	cmp	r7, fp
43e042cc:	ba00003a 	blt	43e043bc <_end+0x43b83f30>
43e042d0:	e085300b 	add	r3, r5, fp
43e042d4:	e084a00a 	add	sl, r4, sl
43e042d8:	e1540003 	cmp	r4, r3
43e042dc:	23a03000 	movcs	r3, #0
43e042e0:	33a03001 	movcc	r3, #1
43e042e4:	e15a0005 	cmp	sl, r5
43e042e8:	93a03000 	movls	r3, #0
43e042ec:	e3530000 	cmp	r3, #0
43e042f0:	0a000029 	beq	43e0439c <_end+0x43b83f10>
43e042f4:	e08a200b 	add	r2, sl, fp
43e042f8:	e0853007 	add	r3, r5, r7
43e042fc:	e1520003 	cmp	r2, r3
43e04300:	8a00002d 	bhi	43e043bc <_end+0x43b83f30>
43e04304:	e1a00004 	mov	r0, r4
43e04308:	e1a0100a 	mov	r1, sl
43e0430c:	e1a03008 	mov	r3, r8
43e04310:	e1a02009 	mov	r2, r9
43e04314:	ebfffd79 	bl	43e03900 <_end+0x43b83474>
43e04318:	e1a00005 	mov	r0, r5
43e0431c:	e1a0100a 	mov	r1, sl
43e04320:	e1a0200b 	mov	r2, fp
43e04324:	ebfffd00 	bl	43e0372c <_end+0x43b832a0>
43e04328:	e3a03edd 	mov	r3, #3536	; 0xdd0
43e0432c:	e6bf7f37 	rev	r7, r7
43e04330:	e34e3dfe 	movt	r3, #60926	; 0xedfe
43e04334:	e5857004 	str	r7, [r5, #4]
43e04338:	e5853000 	str	r3, [r5]
43e0433c:	e3a03411 	mov	r3, #285212672	; 0x11000000
43e04340:	e5853014 	str	r3, [r5, #20]
43e04344:	e3a03201 	mov	r3, #268435456	; 0x10000000
43e04348:	e5853018 	str	r3, [r5, #24]
43e0434c:	e594301c 	ldr	r3, [r4, #28]
43e04350:	e6bf3f33 	rev	r3, r3
43e04354:	e6bf3f33 	rev	r3, r3
43e04358:	e585301c 	str	r3, [r5, #28]
43e0435c:	eaffffb1 	b	43e04228 <_end+0x43b83d9c>
43e04360:	e1a00004 	mov	r0, r4
43e04364:	e1a01005 	mov	r1, r5
43e04368:	e1a02007 	mov	r2, r7
43e0436c:	eb00043c 	bl	43e05464 <_end+0x43b84fd8>
43e04370:	e3500000 	cmp	r0, #0
43e04374:	11a06000 	movne	r6, r0
43e04378:	1affffaa 	bne	43e04228 <_end+0x43b83d9c>
43e0437c:	e6bf7f37 	rev	r7, r7
43e04380:	e59d3004 	ldr	r3, [sp, #4]
43e04384:	e3a02411 	mov	r2, #285212672	; 0x11000000
43e04388:	e6bf3f33 	rev	r3, r3
43e0438c:	e5852014 	str	r2, [r5, #20]
43e04390:	e5853024 	str	r3, [r5, #36]	; 0x24
43e04394:	e5857004 	str	r7, [r5, #4]
43e04398:	eaffffa2 	b	43e04228 <_end+0x43b83d9c>
43e0439c:	e1a00004 	mov	r0, r4
43e043a0:	e1a01005 	mov	r1, r5
43e043a4:	e1a03008 	mov	r3, r8
43e043a8:	e1a02009 	mov	r2, r9
43e043ac:	ebfffd53 	bl	43e03900 <_end+0x43b83474>
43e043b0:	e1a00005 	mov	r0, r5
43e043b4:	e1a01005 	mov	r1, r5
43e043b8:	eaffffd8 	b	43e04320 <_end+0x43b83e94>
43e043bc:	e3e06002 	mvn	r6, #2
43e043c0:	eaffff98 	b	43e04228 <_end+0x43b83d9c>
43e043c4:	e92d4038 	push	{r3, r4, r5, lr}
43e043c8:	e1a04000 	mov	r4, r0
43e043cc:	ebfffe1e 	bl	43e03c4c <_end+0x43b837c0>
43e043d0:	e2505000 	subs	r5, r0, #0
43e043d4:	1a00000f 	bne	43e04418 <_end+0x43b83f8c>
43e043d8:	e1a00004 	mov	r0, r4
43e043dc:	eb00004c 	bl	43e04514 <_end+0x43b84088>
43e043e0:	e5943024 	ldr	r3, [r4, #36]	; 0x24
43e043e4:	e1a01004 	mov	r1, r4
43e043e8:	e6bf3f33 	rev	r3, r3
43e043ec:	e2802001 	add	r2, r0, #1
43e043f0:	e1a00004 	mov	r0, r4
43e043f4:	e1a02202 	lsl	r2, r2, #4
43e043f8:	ebfffd40 	bl	43e03900 <_end+0x43b83474>
43e043fc:	e594200c 	ldr	r2, [r4, #12]
43e04400:	e5943020 	ldr	r3, [r4, #32]
43e04404:	e6bf2f32 	rev	r2, r2
43e04408:	e6bf3f33 	rev	r3, r3
43e0440c:	e0833002 	add	r3, r3, r2
43e04410:	e6bf3f33 	rev	r3, r3
43e04414:	e5843004 	str	r3, [r4, #4]
43e04418:	e1a00005 	mov	r0, r5
43e0441c:	e8bd8038 	pop	{r3, r4, r5, pc}
43e04420:	e92d4030 	push	{r4, r5, lr}
43e04424:	e24dd00c 	sub	sp, sp, #12
43e04428:	e1a05000 	mov	r5, r0
43e0442c:	e1a04001 	mov	r4, r1
43e04430:	e1a01004 	mov	r1, r4
43e04434:	e1a00005 	mov	r0, r5
43e04438:	e28d2004 	add	r2, sp, #4
43e0443c:	eb000360 	bl	43e051c4 <_end+0x43b84d38>
43e04440:	e3500003 	cmp	r0, #3
43e04444:	0a000005 	beq	43e04460 <_end+0x43b83fd4>
43e04448:	e3500009 	cmp	r0, #9
43e0444c:	0a000006 	beq	43e0446c <_end+0x43b83fe0>
43e04450:	e3500004 	cmp	r0, #4
43e04454:	e59d4004 	ldr	r4, [sp, #4]
43e04458:	0afffff4 	beq	43e04430 <_end+0x43b83fa4>
43e0445c:	e3e04000 	mvn	r4, #0
43e04460:	e1a00004 	mov	r0, r4
43e04464:	e28dd00c 	add	sp, sp, #12
43e04468:	e8bd8030 	pop	{r4, r5, pc}
43e0446c:	e59d4004 	ldr	r4, [sp, #4]
43e04470:	e3540000 	cmp	r4, #0
43e04474:	a3e0400a 	mvnge	r4, #10
43e04478:	eafffff8 	b	43e04460 <_end+0x43b83fd4>
43e0447c:	e590300c 	ldr	r3, [r0, #12]
43e04480:	e6bf3f33 	rev	r3, r3
43e04484:	e0833001 	add	r3, r3, r1
43e04488:	e0800003 	add	r0, r0, r3
43e0448c:	e12fff1e 	bx	lr
43e04490:	e92d4ff8 	push	{r3, r4, r5, r6, r7, r8, r9, sl, fp, lr}
43e04494:	e1a04000 	mov	r4, r0
43e04498:	e1a05001 	mov	r5, r1
43e0449c:	e1a06002 	mov	r6, r2
43e044a0:	e1a07003 	mov	r7, r3
43e044a4:	eb000315 	bl	43e05100 <_end+0x43b84c74>
43e044a8:	e3500000 	cmp	r0, #0
43e044ac:	18bd8ff8 	popne	{r3, r4, r5, r6, r7, r8, r9, sl, fp, pc}
43e044b0:	e5943010 	ldr	r3, [r4, #16]
43e044b4:	e1a01205 	lsl	r1, r5, #4
43e044b8:	e6bf3f33 	rev	r3, r3
43e044bc:	e0843003 	add	r3, r4, r3
43e044c0:	e1a08000 	mov	r8, r0
43e044c4:	e0832001 	add	r2, r3, r1
43e044c8:	e7933205 	ldr	r3, [r3, r5, lsl #4]
43e044cc:	e592c004 	ldr	ip, [r2, #4]
43e044d0:	e6bf3f33 	rev	r3, r3
43e044d4:	e6bfcf3c 	rev	ip, ip
43e044d8:	e1a09003 	mov	r9, r3
43e044dc:	e180200c 	orr	r2, r0, ip
43e044e0:	e1c620f0 	strd	r2, [r6]
43e044e4:	e5943010 	ldr	r3, [r4, #16]
43e044e8:	e6bf3f33 	rev	r3, r3
43e044ec:	e0844003 	add	r4, r4, r3
43e044f0:	e0841001 	add	r1, r4, r1
43e044f4:	e5913008 	ldr	r3, [r1, #8]
43e044f8:	e6bf3f33 	rev	r3, r3
43e044fc:	e1a0b003 	mov	fp, r3
43e04500:	e591300c 	ldr	r3, [r1, #12]
43e04504:	e6bf3f33 	rev	r3, r3
43e04508:	e180a003 	orr	sl, r0, r3
43e0450c:	e1c7a0f0 	strd	sl, [r7]
43e04510:	e8bd8ff8 	pop	{r3, r4, r5, r6, r7, r8, r9, sl, fp, pc}
43e04514:	e92d0070 	push	{r4, r5, r6}
43e04518:	e3a01000 	mov	r1, #0
43e0451c:	e590c010 	ldr	ip, [r0, #16]
43e04520:	e6bfcf3c 	rev	ip, ip
43e04524:	ea000000 	b	43e0452c <_end+0x43b840a0>
43e04528:	e2811001 	add	r1, r1, #1
43e0452c:	e0803201 	add	r3, r0, r1, lsl #4
43e04530:	e3a04000 	mov	r4, #0
43e04534:	e083300c 	add	r3, r3, ip
43e04538:	e5932008 	ldr	r2, [r3, #8]
43e0453c:	e593600c 	ldr	r6, [r3, #12]
43e04540:	e6bf2f32 	rev	r2, r2
43e04544:	e6bf6f36 	rev	r6, r6
43e04548:	e1a05002 	mov	r5, r2
43e0454c:	e1842006 	orr	r2, r4, r6
43e04550:	e1a03005 	mov	r3, r5
43e04554:	e1926003 	orrs	r6, r2, r3
43e04558:	1afffff2 	bne	43e04528 <_end+0x43b8409c>
43e0455c:	e1a00001 	mov	r0, r1
43e04560:	e8bd0070 	pop	{r4, r5, r6}
43e04564:	e12fff1e 	bx	lr
43e04568:	e92d45f0 	push	{r4, r5, r6, r7, r8, sl, lr}
43e0456c:	e24dd00c 	sub	sp, sp, #12
43e04570:	e1a05000 	mov	r5, r0
43e04574:	e1a04001 	mov	r4, r1
43e04578:	e1a06002 	mov	r6, r2
43e0457c:	e1a07003 	mov	r7, r3
43e04580:	eb0002de 	bl	43e05100 <_end+0x43b84c74>
43e04584:	e3500000 	cmp	r0, #0
43e04588:	1a00001d 	bne	43e04604 <_end+0x43b84178>
43e0458c:	e3540000 	cmp	r4, #0
43e04590:	e58d0004 	str	r0, [sp, #4]
43e04594:	a287a001 	addge	sl, r7, #1
43e04598:	ba000018 	blt	43e04600 <_end+0x43b84174>
43e0459c:	e1a01004 	mov	r1, r4
43e045a0:	e28d2004 	add	r2, sp, #4
43e045a4:	e1a00005 	mov	r0, r5
43e045a8:	eb000362 	bl	43e05338 <_end+0x43b84eac>
43e045ac:	e59d3004 	ldr	r3, [sp, #4]
43e045b0:	e3500000 	cmp	r0, #0
43e045b4:	a3530000 	cmpge	r3, #0
43e045b8:	e1a04000 	mov	r4, r0
43e045bc:	ba000012 	blt	43e0460c <_end+0x43b84180>
43e045c0:	e3530001 	cmp	r3, #1
43e045c4:	1afffff4 	bne	43e0459c <_end+0x43b84110>
43e045c8:	e2841004 	add	r1, r4, #4
43e045cc:	e1a0200a 	mov	r2, sl
43e045d0:	e1a00005 	mov	r0, r5
43e045d4:	eb0002e6 	bl	43e05174 <_end+0x43b84ce8>
43e045d8:	e1a01006 	mov	r1, r6
43e045dc:	e1a02007 	mov	r2, r7
43e045e0:	e2508000 	subs	r8, r0, #0
43e045e4:	0affffec 	beq	43e0459c <_end+0x43b84110>
43e045e8:	ebfffc67 	bl	43e0378c <_end+0x43b83300>
43e045ec:	e3500000 	cmp	r0, #0
43e045f0:	1affffe9 	bne	43e0459c <_end+0x43b84110>
43e045f4:	e7d83007 	ldrb	r3, [r8, r7]
43e045f8:	e3530000 	cmp	r3, #0
43e045fc:	1a000006 	bne	43e0461c <_end+0x43b84190>
43e04600:	e1a00004 	mov	r0, r4
43e04604:	e28dd00c 	add	sp, sp, #12
43e04608:	e8bd85f0 	pop	{r4, r5, r6, r7, r8, sl, pc}
43e0460c:	e3530000 	cmp	r3, #0
43e04610:	b3e00000 	mvnlt	r0, #0
43e04614:	aafffff9 	bge	43e04600 <_end+0x43b84174>
43e04618:	eafffff9 	b	43e04604 <_end+0x43b84178>
43e0461c:	e1a00006 	mov	r0, r6
43e04620:	e3a01040 	mov	r1, #64	; 0x40
43e04624:	e1a02007 	mov	r2, r7
43e04628:	ebfffc6c 	bl	43e037e0 <_end+0x43b83354>
43e0462c:	e3500000 	cmp	r0, #0
43e04630:	1affffd9 	bne	43e0459c <_end+0x43b84110>
43e04634:	e7d83007 	ldrb	r3, [r8, r7]
43e04638:	e3530040 	cmp	r3, #64	; 0x40
43e0463c:	1affffd6 	bne	43e0459c <_end+0x43b84110>
43e04640:	eaffffee 	b	43e04600 <_end+0x43b84174>
43e04644:	e92d4070 	push	{r4, r5, r6, lr}
43e04648:	e1a05000 	mov	r5, r0
43e0464c:	e1a00002 	mov	r0, r2
43e04650:	e1a04002 	mov	r4, r2
43e04654:	e1a06001 	mov	r6, r1
43e04658:	ebfffc43 	bl	43e0376c <_end+0x43b832e0>
43e0465c:	e1a01006 	mov	r1, r6
43e04660:	e1a02004 	mov	r2, r4
43e04664:	e1a03000 	mov	r3, r0
43e04668:	e1a00005 	mov	r0, r5
43e0466c:	e8bd4070 	pop	{r4, r5, r6, lr}
43e04670:	eaffffbc 	b	43e04568 <_end+0x43b840dc>
43e04674:	e92d40f8 	push	{r3, r4, r5, r6, r7, lr}
43e04678:	e1a04000 	mov	r4, r0
43e0467c:	e5907008 	ldr	r7, [r0, #8]
43e04680:	e1a05001 	mov	r5, r1
43e04684:	e1a06002 	mov	r6, r2
43e04688:	eb00029c 	bl	43e05100 <_end+0x43b84c74>
43e0468c:	e6bf7f37 	rev	r7, r7
43e04690:	e3500000 	cmp	r0, #0
43e04694:	0a000004 	beq	43e046ac <_end+0x43b84220>
43e04698:	e3560000 	cmp	r6, #0
43e0469c:	15860000 	strne	r0, [r6]
43e046a0:	01a00006 	moveq	r0, r6
43e046a4:	13a00000 	movne	r0, #0
43e046a8:	e8bd80f8 	pop	{r3, r4, r5, r6, r7, pc}
43e046ac:	e1a00004 	mov	r0, r4
43e046b0:	e1a01005 	mov	r1, r5
43e046b4:	eb0002ff 	bl	43e052b8 <_end+0x43b84e2c>
43e046b8:	e3500000 	cmp	r0, #0
43e046bc:	bafffff5 	blt	43e04698 <_end+0x43b8420c>
43e046c0:	e0875005 	add	r5, r7, r5
43e046c4:	e3560000 	cmp	r6, #0
43e046c8:	e0844005 	add	r4, r4, r5
43e046cc:	e2844004 	add	r4, r4, #4
43e046d0:	0a000002 	beq	43e046e0 <_end+0x43b84254>
43e046d4:	e1a00004 	mov	r0, r4
43e046d8:	ebfffc23 	bl	43e0376c <_end+0x43b832e0>
43e046dc:	e5860000 	str	r0, [r6]
43e046e0:	e1a00004 	mov	r0, r4
43e046e4:	e8bd80f8 	pop	{r3, r4, r5, r6, r7, pc}
43e046e8:	e92d4010 	push	{r4, lr}
43e046ec:	e1a04000 	mov	r4, r0
43e046f0:	eb0002f0 	bl	43e052b8 <_end+0x43b84e2c>
43e046f4:	e2501000 	subs	r1, r0, #0
43e046f8:	b8bd8010 	poplt	{r4, pc}
43e046fc:	e1a00004 	mov	r0, r4
43e04700:	e8bd4010 	pop	{r4, lr}
43e04704:	eaffff45 	b	43e04420 <_end+0x43b83f94>
43e04708:	e92d4010 	push	{r4, lr}
43e0470c:	e1a04000 	mov	r4, r0
43e04710:	eb0002f8 	bl	43e052f8 <_end+0x43b84e6c>
43e04714:	e2501000 	subs	r1, r0, #0
43e04718:	b8bd8010 	poplt	{r4, pc}
43e0471c:	e1a00004 	mov	r0, r4
43e04720:	e8bd4010 	pop	{r4, lr}
43e04724:	eaffff3d 	b	43e04420 <_end+0x43b83f94>
43e04728:	e92d4070 	push	{r4, r5, r6, lr}
43e0472c:	e1a04000 	mov	r4, r0
43e04730:	e1a05001 	mov	r5, r1
43e04734:	e1a06002 	mov	r6, r2
43e04738:	eb0002ee 	bl	43e052f8 <_end+0x43b84e6c>
43e0473c:	e3500000 	cmp	r0, #0
43e04740:	ba000009 	blt	43e0476c <_end+0x43b842e0>
43e04744:	e3560000 	cmp	r6, #0
43e04748:	e5940008 	ldr	r0, [r4, #8]
43e0474c:	e6bf0f30 	rev	r0, r0
43e04750:	e0805005 	add	r5, r0, r5
43e04754:	e0840005 	add	r0, r4, r5
43e04758:	08bd8070 	popeq	{r4, r5, r6, pc}
43e0475c:	e5903004 	ldr	r3, [r0, #4]
43e04760:	e6bf3f33 	rev	r3, r3
43e04764:	e5863000 	str	r3, [r6]
43e04768:	e8bd8070 	pop	{r4, r5, r6, pc}
43e0476c:	e3560000 	cmp	r6, #0
43e04770:	15860000 	strne	r0, [r6]
43e04774:	13a00000 	movne	r0, #0
43e04778:	18bd8070 	popne	{r4, r5, r6, pc}
43e0477c:	e1a00006 	mov	r0, r6
43e04780:	e8bd8070 	pop	{r4, r5, r6, pc}
43e04784:	e92d47f0 	push	{r4, r5, r6, r7, r8, r9, sl, lr}
43e04788:	e1a04000 	mov	r4, r0
43e0478c:	e1a05002 	mov	r5, r2
43e04790:	e1a0a003 	mov	sl, r3
43e04794:	e59d8020 	ldr	r8, [sp, #32]
43e04798:	ebffffd2 	bl	43e046e8 <_end+0x43b8425c>
43e0479c:	e2506000 	subs	r6, r0, #0
43e047a0:	aa000005 	bge	43e047bc <_end+0x43b84330>
43e047a4:	ea00001b 	b	43e04818 <_end+0x43b8438c>
43e047a8:	e1a01006 	mov	r1, r6
43e047ac:	e1a00004 	mov	r0, r4
43e047b0:	ebffffd4 	bl	43e04708 <_end+0x43b8427c>
43e047b4:	e2506000 	subs	r6, r0, #0
43e047b8:	ba000016 	blt	43e04818 <_end+0x43b8438c>
43e047bc:	e1a02008 	mov	r2, r8
43e047c0:	e1a01006 	mov	r1, r6
43e047c4:	e1a00004 	mov	r0, r4
43e047c8:	ebffffd6 	bl	43e04728 <_end+0x43b8429c>
43e047cc:	e2507000 	subs	r7, r0, #0
43e047d0:	e1a00004 	mov	r0, r4
43e047d4:	0a00000e 	beq	43e04814 <_end+0x43b84388>
43e047d8:	e5971008 	ldr	r1, [r7, #8]
43e047dc:	e6bf1f31 	rev	r1, r1
43e047e0:	ebffff25 	bl	43e0447c <_end+0x43b83ff0>
43e047e4:	e1a09000 	mov	r9, r0
43e047e8:	ebfffbdf 	bl	43e0376c <_end+0x43b832e0>
43e047ec:	e150000a 	cmp	r0, sl
43e047f0:	1affffec 	bne	43e047a8 <_end+0x43b8431c>
43e047f4:	e1a00009 	mov	r0, r9
43e047f8:	e1a01005 	mov	r1, r5
43e047fc:	e1a0200a 	mov	r2, sl
43e04800:	ebfffbe1 	bl	43e0378c <_end+0x43b83300>
43e04804:	e3500000 	cmp	r0, #0
43e04808:	1affffe6 	bne	43e047a8 <_end+0x43b8431c>
43e0480c:	e1a00007 	mov	r0, r7
43e04810:	e8bd87f0 	pop	{r4, r5, r6, r7, r8, r9, sl, pc}
43e04814:	e3e0600c 	mvn	r6, #12
43e04818:	e3580000 	cmp	r8, #0
43e0481c:	15886000 	strne	r6, [r8]
43e04820:	13a07000 	movne	r7, #0
43e04824:	01a07008 	moveq	r7, r8
43e04828:	e1a00007 	mov	r0, r7
43e0482c:	e8bd87f0 	pop	{r4, r5, r6, r7, r8, r9, sl, pc}
43e04830:	e92d40f0 	push	{r4, r5, r6, r7, lr}
43e04834:	e1a06000 	mov	r6, r0
43e04838:	e24dd00c 	sub	sp, sp, #12
43e0483c:	e1a00002 	mov	r0, r2
43e04840:	e1a04003 	mov	r4, r3
43e04844:	e1a05002 	mov	r5, r2
43e04848:	e1a07001 	mov	r7, r1
43e0484c:	ebfffbc6 	bl	43e0376c <_end+0x43b832e0>
43e04850:	e1a01007 	mov	r1, r7
43e04854:	e1a02005 	mov	r2, r5
43e04858:	e58d4000 	str	r4, [sp]
43e0485c:	e1a03000 	mov	r3, r0
43e04860:	e1a00006 	mov	r0, r6
43e04864:	ebffffc6 	bl	43e04784 <_end+0x43b842f8>
43e04868:	e28dd00c 	add	sp, sp, #12
43e0486c:	e8bd80f0 	pop	{r4, r5, r6, r7, pc}
43e04870:	e52de004 	push	{lr}		; (str lr, [sp, #-4]!)
43e04874:	e24dd00c 	sub	sp, sp, #12
43e04878:	e59dc010 	ldr	ip, [sp, #16]
43e0487c:	e58dc000 	str	ip, [sp]
43e04880:	ebffffbf 	bl	43e04784 <_end+0x43b842f8>
43e04884:	e3500000 	cmp	r0, #0
43e04888:	1280000c 	addne	r0, r0, #12
43e0488c:	e28dd00c 	add	sp, sp, #12
43e04890:	e8bd8000 	pop	{pc}
43e04894:	e92d4070 	push	{r4, r5, r6, lr}
43e04898:	e1a04002 	mov	r4, r2
43e0489c:	e1a02003 	mov	r2, r3
43e048a0:	e1a05000 	mov	r5, r0
43e048a4:	ebffff9f 	bl	43e04728 <_end+0x43b8429c>
43e048a8:	e2506000 	subs	r6, r0, #0
43e048ac:	0a000008 	beq	43e048d4 <_end+0x43b84448>
43e048b0:	e3540000 	cmp	r4, #0
43e048b4:	0a000004 	beq	43e048cc <_end+0x43b84440>
43e048b8:	e5961008 	ldr	r1, [r6, #8]
43e048bc:	e1a00005 	mov	r0, r5
43e048c0:	e6bf1f31 	rev	r1, r1
43e048c4:	ebfffeec 	bl	43e0447c <_end+0x43b83ff0>
43e048c8:	e5840000 	str	r0, [r4]
43e048cc:	e286000c 	add	r0, r6, #12
43e048d0:	e8bd8070 	pop	{r4, r5, r6, pc}
43e048d4:	e1a00006 	mov	r0, r6
43e048d8:	e8bd8070 	pop	{r4, r5, r6, pc}
43e048dc:	e92d40f0 	push	{r4, r5, r6, r7, lr}
43e048e0:	e1a06000 	mov	r6, r0
43e048e4:	e24dd00c 	sub	sp, sp, #12
43e048e8:	e1a00002 	mov	r0, r2
43e048ec:	e1a04003 	mov	r4, r3
43e048f0:	e1a05002 	mov	r5, r2
43e048f4:	e1a07001 	mov	r7, r1
43e048f8:	ebfffb9b 	bl	43e0376c <_end+0x43b832e0>
43e048fc:	e1a01007 	mov	r1, r7
43e04900:	e1a02005 	mov	r2, r5
43e04904:	e58d4000 	str	r4, [sp]
43e04908:	e1a03000 	mov	r3, r0
43e0490c:	e1a00006 	mov	r0, r6
43e04910:	ebffffd6 	bl	43e04870 <_end+0x43b843e4>
43e04914:	e28dd00c 	add	sp, sp, #12
43e04918:	e8bd80f0 	pop	{r4, r5, r6, r7, pc}
43e0491c:	e59f2070 	ldr	r2, [pc, #112]	; 43e04994 <_end+0x43b84508>
43e04920:	e92d4030 	push	{r4, r5, lr}
43e04924:	e24dd00c 	sub	sp, sp, #12
43e04928:	e08f2002 	add	r2, pc, r2
43e0492c:	e28d3004 	add	r3, sp, #4
43e04930:	e1a05000 	mov	r5, r0
43e04934:	e1a04001 	mov	r4, r1
43e04938:	ebffffe7 	bl	43e048dc <_end+0x43b84450>
43e0493c:	e3500000 	cmp	r0, #0
43e04940:	0a000002 	beq	43e04950 <_end+0x43b844c4>
43e04944:	e59d3004 	ldr	r3, [sp, #4]
43e04948:	e3530004 	cmp	r3, #4
43e0494c:	0a00000d 	beq	43e04988 <_end+0x43b844fc>
43e04950:	e59f2040 	ldr	r2, [pc, #64]	; 43e04998 <_end+0x43b8450c>
43e04954:	e1a00005 	mov	r0, r5
43e04958:	e1a01004 	mov	r1, r4
43e0495c:	e28d3004 	add	r3, sp, #4
43e04960:	e08f2002 	add	r2, pc, r2
43e04964:	ebffffdc 	bl	43e048dc <_end+0x43b84450>
43e04968:	e3500000 	cmp	r0, #0
43e0496c:	0a000003 	beq	43e04980 <_end+0x43b844f4>
43e04970:	e59d3004 	ldr	r3, [sp, #4]
43e04974:	e3530004 	cmp	r3, #4
43e04978:	13a00000 	movne	r0, #0
43e0497c:	0a000001 	beq	43e04988 <_end+0x43b844fc>
43e04980:	e28dd00c 	add	sp, sp, #12
43e04984:	e8bd8030 	pop	{r4, r5, pc}
43e04988:	e5900000 	ldr	r0, [r0]
43e0498c:	e6bf0f30 	rev	r0, r0
43e04990:	eafffffa 	b	43e04980 <_end+0x43b844f4>
43e04994:	00001db8 			; <UNDEFINED> instruction: 0x00001db8
43e04998:	00001d88 	andeq	r1, r0, r8, lsl #27
43e0499c:	e92d4070 	push	{r4, r5, r6, lr}
43e049a0:	e1a05001 	mov	r5, r1
43e049a4:	e59f103c 	ldr	r1, [pc, #60]	; 43e049e8 <_end+0x43b8455c>
43e049a8:	e24dd008 	sub	sp, sp, #8
43e049ac:	e1a06000 	mov	r6, r0
43e049b0:	e1a04002 	mov	r4, r2
43e049b4:	e08f1001 	add	r1, pc, r1
43e049b8:	eb00000b 	bl	43e049ec <_end+0x43b84560>
43e049bc:	e2501000 	subs	r1, r0, #0
43e049c0:	b3a00000 	movlt	r0, #0
43e049c4:	ba000005 	blt	43e049e0 <_end+0x43b84554>
43e049c8:	e1a00006 	mov	r0, r6
43e049cc:	e1a02005 	mov	r2, r5
43e049d0:	e1a03004 	mov	r3, r4
43e049d4:	e3a0c000 	mov	ip, #0
43e049d8:	e58dc000 	str	ip, [sp]
43e049dc:	ebffffa3 	bl	43e04870 <_end+0x43b843e4>
43e049e0:	e28dd008 	add	sp, sp, #8
43e049e4:	e8bd8070 	pop	{r4, r5, r6, pc}
43e049e8:	00001d44 	andeq	r1, r0, r4, asr #26
43e049ec:	e92d40f8 	push	{r3, r4, r5, r6, r7, lr}
43e049f0:	e1a05000 	mov	r5, r0
43e049f4:	e1a00001 	mov	r0, r1
43e049f8:	e1a04001 	mov	r4, r1
43e049fc:	ebfffb5a 	bl	43e0376c <_end+0x43b832e0>
43e04a00:	e1a06000 	mov	r6, r0
43e04a04:	e1a00005 	mov	r0, r5
43e04a08:	eb0001bc 	bl	43e05100 <_end+0x43b84c74>
43e04a0c:	e3500000 	cmp	r0, #0
43e04a10:	18bd80f8 	popne	{r3, r4, r5, r6, r7, pc}
43e04a14:	e5d43000 	ldrb	r3, [r4]
43e04a18:	e0846006 	add	r6, r4, r6
43e04a1c:	e353002f 	cmp	r3, #47	; 0x2f
43e04a20:	0a00002b 	beq	43e04ad4 <_end+0x43b84648>
43e04a24:	e1a00004 	mov	r0, r4
43e04a28:	e3a0102f 	mov	r1, #47	; 0x2f
43e04a2c:	ebfffb77 	bl	43e03810 <_end+0x43b83384>
43e04a30:	e1a01004 	mov	r1, r4
43e04a34:	e3500000 	cmp	r0, #0
43e04a38:	11a04000 	movne	r4, r0
43e04a3c:	01a04006 	moveq	r4, r6
43e04a40:	e1a00005 	mov	r0, r5
43e04a44:	e0612004 	rsb	r2, r1, r4
43e04a48:	ebffffd3 	bl	43e0499c <_end+0x43b84510>
43e04a4c:	e2501000 	subs	r1, r0, #0
43e04a50:	03e00004 	mvneq	r0, #4
43e04a54:	08bd80f8 	popeq	{r3, r4, r5, r6, r7, pc}
43e04a58:	e1a00005 	mov	r0, r5
43e04a5c:	ebffffe2 	bl	43e049ec <_end+0x43b84560>
43e04a60:	e5d43000 	ldrb	r3, [r4]
43e04a64:	e1a07000 	mov	r7, r0
43e04a68:	e3530000 	cmp	r3, #0
43e04a6c:	0a00001c 	beq	43e04ae4 <_end+0x43b84658>
43e04a70:	e353002f 	cmp	r3, #47	; 0x2f
43e04a74:	01a03004 	moveq	r3, r4
43e04a78:	1a000006 	bne	43e04a98 <_end+0x43b8460c>
43e04a7c:	e2833001 	add	r3, r3, #1
43e04a80:	e5d32000 	ldrb	r2, [r3]
43e04a84:	e1a04003 	mov	r4, r3
43e04a88:	e352002f 	cmp	r2, #47	; 0x2f
43e04a8c:	0afffffa 	beq	43e04a7c <_end+0x43b845f0>
43e04a90:	e3520000 	cmp	r2, #0
43e04a94:	0a000010 	beq	43e04adc <_end+0x43b84650>
43e04a98:	e1a00004 	mov	r0, r4
43e04a9c:	e3a0102f 	mov	r1, #47	; 0x2f
43e04aa0:	ebfffb5a 	bl	43e03810 <_end+0x43b83384>
43e04aa4:	e1a02004 	mov	r2, r4
43e04aa8:	e1a01007 	mov	r1, r7
43e04aac:	e3500000 	cmp	r0, #0
43e04ab0:	11a04000 	movne	r4, r0
43e04ab4:	01a04006 	moveq	r4, r6
43e04ab8:	e1a00005 	mov	r0, r5
43e04abc:	e0623004 	rsb	r3, r2, r4
43e04ac0:	ebfffea8 	bl	43e04568 <_end+0x43b840dc>
43e04ac4:	e2507000 	subs	r7, r0, #0
43e04ac8:	ba000003 	blt	43e04adc <_end+0x43b84650>
43e04acc:	e5d43000 	ldrb	r3, [r4]
43e04ad0:	eaffffe4 	b	43e04a68 <_end+0x43b845dc>
43e04ad4:	e1a07000 	mov	r7, r0
43e04ad8:	eaffffe2 	b	43e04a68 <_end+0x43b845dc>
43e04adc:	e1a00007 	mov	r0, r7
43e04ae0:	e8bd80f8 	pop	{r3, r4, r5, r6, r7, pc}
43e04ae4:	e1a00007 	mov	r0, r7
43e04ae8:	e8bd80f8 	pop	{r3, r4, r5, r6, r7, pc}
43e04aec:	e92d4038 	push	{r3, r4, r5, lr}
43e04af0:	e1a05000 	mov	r5, r0
43e04af4:	e1a00001 	mov	r0, r1
43e04af8:	e1a04001 	mov	r4, r1
43e04afc:	ebfffb1a 	bl	43e0376c <_end+0x43b832e0>
43e04b00:	e1a01004 	mov	r1, r4
43e04b04:	e1a02000 	mov	r2, r0
43e04b08:	e1a00005 	mov	r0, r5
43e04b0c:	e8bd4038 	pop	{r3, r4, r5, lr}
43e04b10:	eaffffa1 	b	43e0499c <_end+0x43b84510>
43e04b14:	e92d4ff0 	push	{r4, r5, r6, r7, r8, r9, sl, fp, lr}
43e04b18:	e24dd00c 	sub	sp, sp, #12
43e04b1c:	e1a06000 	mov	r6, r0
43e04b20:	e1a05001 	mov	r5, r1
43e04b24:	e1a04002 	mov	r4, r2
43e04b28:	e1a0b003 	mov	fp, r3
43e04b2c:	eb000173 	bl	43e05100 <_end+0x43b84c74>
43e04b30:	e2509000 	subs	r9, r0, #0
43e04b34:	1a000040 	bne	43e04c3c <_end+0x43b847b0>
43e04b38:	e35b0001 	cmp	fp, #1
43e04b3c:	da00004a 	ble	43e04c6c <_end+0x43b847e0>
43e04b40:	e3550000 	cmp	r5, #0
43e04b44:	e58d9000 	str	r9, [sp]
43e04b48:	ba000043 	blt	43e04c5c <_end+0x43b847d0>
43e04b4c:	e1a01009 	mov	r1, r9
43e04b50:	e1a08009 	mov	r8, r9
43e04b54:	e1a07009 	mov	r7, r9
43e04b58:	e1a0a009 	mov	sl, r9
43e04b5c:	e15a0001 	cmp	sl, r1
43e04b60:	aa000018 	bge	43e04bc8 <_end+0x43b8473c>
43e04b64:	e1580005 	cmp	r8, r5
43e04b68:	0a00002b 	beq	43e04c1c <_end+0x43b84790>
43e04b6c:	e1a01008 	mov	r1, r8
43e04b70:	e1a00006 	mov	r0, r6
43e04b74:	e1a0200d 	mov	r2, sp
43e04b78:	eb0001ee 	bl	43e05338 <_end+0x43b84eac>
43e04b7c:	e1550000 	cmp	r5, r0
43e04b80:	a3500000 	cmpge	r0, #0
43e04b84:	e1a08000 	mov	r8, r0
43e04b88:	ba00002e 	blt	43e04c48 <_end+0x43b847bc>
43e04b8c:	e59d1000 	ldr	r1, [sp]
43e04b90:	e15a0001 	cmp	sl, r1
43e04b94:	dafffff0 	ble	43e04b5c <_end+0x43b846d0>
43e04b98:	e0843007 	add	r3, r4, r7
43e04b9c:	e2433001 	sub	r3, r3, #1
43e04ba0:	e2477001 	sub	r7, r7, #1
43e04ba4:	e5532001 	ldrb	r2, [r3, #-1]
43e04ba8:	e352002f 	cmp	r2, #47	; 0x2f
43e04bac:	1afffffa 	bne	43e04b9c <_end+0x43b84710>
43e04bb0:	e24aa001 	sub	sl, sl, #1
43e04bb4:	e15a0001 	cmp	sl, r1
43e04bb8:	cafffff6 	bgt	43e04b98 <_end+0x43b8470c>
43e04bbc:	e1a0a001 	mov	sl, r1
43e04bc0:	e15a0001 	cmp	sl, r1
43e04bc4:	baffffe6 	blt	43e04b64 <_end+0x43b846d8>
43e04bc8:	e1a01008 	mov	r1, r8
43e04bcc:	e1a00006 	mov	r0, r6
43e04bd0:	e28d2004 	add	r2, sp, #4
43e04bd4:	ebfffea6 	bl	43e04674 <_end+0x43b841e8>
43e04bd8:	e2501000 	subs	r1, r0, #0
43e04bdc:	0a000020 	beq	43e04c64 <_end+0x43b847d8>
43e04be0:	e59d2004 	ldr	r2, [sp, #4]
43e04be4:	e0873002 	add	r3, r7, r2
43e04be8:	e2833001 	add	r3, r3, #1
43e04bec:	e15b0003 	cmp	fp, r3
43e04bf0:	baffffdb 	blt	43e04b64 <_end+0x43b846d8>
43e04bf4:	e0840007 	add	r0, r4, r7
43e04bf8:	e28aa001 	add	sl, sl, #1
43e04bfc:	ebfffa93 	bl	43e03650 <_end+0x43b831c4>
43e04c00:	e59d3004 	ldr	r3, [sp, #4]
43e04c04:	e1580005 	cmp	r8, r5
43e04c08:	e3a0202f 	mov	r2, #47	; 0x2f
43e04c0c:	e0873003 	add	r3, r7, r3
43e04c10:	e2837001 	add	r7, r3, #1
43e04c14:	e7c42003 	strb	r2, [r4, r3]
43e04c18:	1affffd3 	bne	43e04b6c <_end+0x43b846e0>
43e04c1c:	e59d3000 	ldr	r3, [sp]
43e04c20:	e2833001 	add	r3, r3, #1
43e04c24:	e15a0003 	cmp	sl, r3
43e04c28:	ba00000f 	blt	43e04c6c <_end+0x43b847e0>
43e04c2c:	e3570001 	cmp	r7, #1
43e04c30:	e3a03000 	mov	r3, #0
43e04c34:	c2477001 	subgt	r7, r7, #1
43e04c38:	e7c43007 	strb	r3, [r4, r7]
43e04c3c:	e1a00009 	mov	r0, r9
43e04c40:	e28dd00c 	add	sp, sp, #12
43e04c44:	e8bd8ff0 	pop	{r4, r5, r6, r7, r8, r9, sl, fp, pc}
43e04c48:	e3700004 	cmn	r0, #4
43e04c4c:	11a09000 	movne	r9, r0
43e04c50:	03e0900a 	mvneq	r9, #10
43e04c54:	e3700001 	cmn	r0, #1
43e04c58:	bafffff7 	blt	43e04c3c <_end+0x43b847b0>
43e04c5c:	e3e09003 	mvn	r9, #3
43e04c60:	eafffff5 	b	43e04c3c <_end+0x43b847b0>
43e04c64:	e59d9004 	ldr	r9, [sp, #4]
43e04c68:	eafffff3 	b	43e04c3c <_end+0x43b847b0>
43e04c6c:	e3e09002 	mvn	r9, #2
43e04c70:	eafffff1 	b	43e04c3c <_end+0x43b847b0>
43e04c74:	e92d41f0 	push	{r4, r5, r6, r7, r8, lr}
43e04c78:	e24dd008 	sub	sp, sp, #8
43e04c7c:	e1a08003 	mov	r8, r3
43e04c80:	e1a06000 	mov	r6, r0
43e04c84:	e1a04001 	mov	r4, r1
43e04c88:	e1a05002 	mov	r5, r2
43e04c8c:	eb00011b 	bl	43e05100 <_end+0x43b84c74>
43e04c90:	e2503000 	subs	r3, r0, #0
43e04c94:	1a00001a 	bne	43e04d04 <_end+0x43b84878>
43e04c98:	e3550000 	cmp	r5, #0
43e04c9c:	b3e03000 	mvnlt	r3, #0
43e04ca0:	ba000017 	blt	43e04d04 <_end+0x43b84878>
43e04ca4:	e3540000 	cmp	r4, #0
43e04ca8:	e58d3004 	str	r3, [sp, #4]
43e04cac:	ba00001c 	blt	43e04d24 <_end+0x43b84898>
43e04cb0:	e1a0c003 	mov	ip, r3
43e04cb4:	e3e0700c 	mvn	r7, #12
43e04cb8:	ea000005 	b	43e04cd4 <_end+0x43b84848>
43e04cbc:	eb00019d 	bl	43e05338 <_end+0x43b84eac>
43e04cc0:	e1540000 	cmp	r4, r0
43e04cc4:	a3500000 	cmpge	r0, #0
43e04cc8:	e1a03000 	mov	r3, r0
43e04ccc:	ba00000f 	blt	43e04d10 <_end+0x43b84884>
43e04cd0:	e59dc004 	ldr	ip, [sp, #4]
43e04cd4:	e155000c 	cmp	r5, ip
43e04cd8:	e1a00006 	mov	r0, r6
43e04cdc:	e1a01003 	mov	r1, r3
43e04ce0:	e28d2004 	add	r2, sp, #4
43e04ce4:	01a07003 	moveq	r7, r3
43e04ce8:	e1540003 	cmp	r4, r3
43e04cec:	1afffff2 	bne	43e04cbc <_end+0x43b84830>
43e04cf0:	e3580000 	cmp	r8, #0
43e04cf4:	1588c000 	strne	ip, [r8]
43e04cf8:	e155000c 	cmp	r5, ip
43e04cfc:	d1a03007 	movle	r3, r7
43e04d00:	c3e03000 	mvngt	r3, #0
43e04d04:	e1a00003 	mov	r0, r3
43e04d08:	e28dd008 	add	sp, sp, #8
43e04d0c:	e8bd81f0 	pop	{r4, r5, r6, r7, r8, pc}
43e04d10:	e3700001 	cmn	r0, #1
43e04d14:	aa000002 	bge	43e04d24 <_end+0x43b84898>
43e04d18:	e3700004 	cmn	r0, #4
43e04d1c:	03e0300a 	mvneq	r3, #10
43e04d20:	eafffff7 	b	43e04d04 <_end+0x43b84878>
43e04d24:	e3e03003 	mvn	r3, #3
43e04d28:	eafffff5 	b	43e04d04 <_end+0x43b84878>
43e04d2c:	e52de004 	push	{lr}		; (str lr, [sp, #-4]!)
43e04d30:	e24dd00c 	sub	sp, sp, #12
43e04d34:	e3a02000 	mov	r2, #0
43e04d38:	e28d3004 	add	r3, sp, #4
43e04d3c:	ebffffcc 	bl	43e04c74 <_end+0x43b847e8>
43e04d40:	e3500000 	cmp	r0, #0
43e04d44:	059d0004 	ldreq	r0, [sp, #4]
43e04d48:	0a000000 	beq	43e04d50 <_end+0x43b848c4>
43e04d4c:	a3e0000c 	mvnge	r0, #12
43e04d50:	e28dd00c 	add	sp, sp, #12
43e04d54:	e8bd8000 	pop	{pc}
43e04d58:	e92d4070 	push	{r4, r5, r6, lr}
43e04d5c:	e1a05000 	mov	r5, r0
43e04d60:	e1a04001 	mov	r4, r1
43e04d64:	ebfffff0 	bl	43e04d2c <_end+0x43b848a0>
43e04d68:	e2502000 	subs	r2, r0, #0
43e04d6c:	b8bd8070 	poplt	{r4, r5, r6, pc}
43e04d70:	e1a00005 	mov	r0, r5
43e04d74:	e1a01004 	mov	r1, r4
43e04d78:	e2422001 	sub	r2, r2, #1
43e04d7c:	e3a03000 	mov	r3, #0
43e04d80:	e8bd4070 	pop	{r4, r5, r6, lr}
43e04d84:	eaffffba 	b	43e04c74 <_end+0x43b847e8>
43e04d88:	e92d45f0 	push	{r4, r5, r6, r7, r8, sl, lr}
43e04d8c:	e24dd00c 	sub	sp, sp, #12
43e04d90:	e1a07002 	mov	r7, r2
43e04d94:	e1a05000 	mov	r5, r0
43e04d98:	e1a0a001 	mov	sl, r1
43e04d9c:	e1a08003 	mov	r8, r3
43e04da0:	e59d6028 	ldr	r6, [sp, #40]	; 0x28
43e04da4:	eb0000d5 	bl	43e05100 <_end+0x43b84c74>
43e04da8:	e2502000 	subs	r2, r0, #0
43e04dac:	0a000002 	beq	43e04dbc <_end+0x43b84930>
43e04db0:	e1a00002 	mov	r0, r2
43e04db4:	e28dd00c 	add	sp, sp, #12
43e04db8:	e8bd85f0 	pop	{r4, r5, r6, r7, r8, sl, pc}
43e04dbc:	e1a00005 	mov	r0, r5
43e04dc0:	e1a0100a 	mov	r1, sl
43e04dc4:	eb00015b 	bl	43e05338 <_end+0x43b84eac>
43e04dc8:	e2504000 	subs	r4, r0, #0
43e04dcc:	aa000006 	bge	43e04dec <_end+0x43b84960>
43e04dd0:	ea000014 	b	43e04e28 <_end+0x43b8499c>
43e04dd4:	e1a01004 	mov	r1, r4
43e04dd8:	e1a00005 	mov	r0, r5
43e04ddc:	e3a02000 	mov	r2, #0
43e04de0:	eb000154 	bl	43e05338 <_end+0x43b84eac>
43e04de4:	e2504000 	subs	r4, r0, #0
43e04de8:	ba00000e 	blt	43e04e28 <_end+0x43b8499c>
43e04dec:	e1a01004 	mov	r1, r4
43e04df0:	e1a02007 	mov	r2, r7
43e04df4:	e28d3004 	add	r3, sp, #4
43e04df8:	e1a00005 	mov	r0, r5
43e04dfc:	ebfffeb6 	bl	43e048dc <_end+0x43b84450>
43e04e00:	e3500000 	cmp	r0, #0
43e04e04:	0afffff2 	beq	43e04dd4 <_end+0x43b84948>
43e04e08:	e59d3004 	ldr	r3, [sp, #4]
43e04e0c:	e1530006 	cmp	r3, r6
43e04e10:	1affffef 	bne	43e04dd4 <_end+0x43b84948>
43e04e14:	e1a01008 	mov	r1, r8
43e04e18:	e1a02006 	mov	r2, r6
43e04e1c:	ebfffa5a 	bl	43e0378c <_end+0x43b83300>
43e04e20:	e3500000 	cmp	r0, #0
43e04e24:	1affffea 	bne	43e04dd4 <_end+0x43b84948>
43e04e28:	e1a02004 	mov	r2, r4
43e04e2c:	eaffffdf 	b	43e04db0 <_end+0x43b84924>
43e04e30:	e2413001 	sub	r3, r1, #1
43e04e34:	e3730003 	cmn	r3, #3
43e04e38:	e92d4070 	push	{r4, r5, r6, lr}
43e04e3c:	83e02005 	mvnhi	r2, #5
43e04e40:	e1a06001 	mov	r6, r1
43e04e44:	e1a05000 	mov	r5, r0
43e04e48:	8a000002 	bhi	43e04e58 <_end+0x43b849cc>
43e04e4c:	eb0000ab 	bl	43e05100 <_end+0x43b84c74>
43e04e50:	e2502000 	subs	r2, r0, #0
43e04e54:	0a000001 	beq	43e04e60 <_end+0x43b849d4>
43e04e58:	e1a00002 	mov	r0, r2
43e04e5c:	e8bd8070 	pop	{r4, r5, r6, pc}
43e04e60:	e1a00005 	mov	r0, r5
43e04e64:	e3e01000 	mvn	r1, #0
43e04e68:	ea000007 	b	43e04e8c <_end+0x43b84a00>
43e04e6c:	e1a01004 	mov	r1, r4
43e04e70:	e1a00005 	mov	r0, r5
43e04e74:	ebfffea8 	bl	43e0491c <_end+0x43b84490>
43e04e78:	e1a01004 	mov	r1, r4
43e04e7c:	e3a02000 	mov	r2, #0
43e04e80:	e1500006 	cmp	r0, r6
43e04e84:	e1a00005 	mov	r0, r5
43e04e88:	0a000002 	beq	43e04e98 <_end+0x43b84a0c>
43e04e8c:	eb000129 	bl	43e05338 <_end+0x43b84eac>
43e04e90:	e2504000 	subs	r4, r0, #0
43e04e94:	aafffff4 	bge	43e04e6c <_end+0x43b849e0>
43e04e98:	e1a02004 	mov	r2, r4
43e04e9c:	e1a00002 	mov	r0, r2
43e04ea0:	e8bd8070 	pop	{r4, r5, r6, pc}
43e04ea4:	e92d41f0 	push	{r4, r5, r6, r7, r8, lr}
43e04ea8:	e1a04002 	mov	r4, r2
43e04eac:	e59f2094 	ldr	r2, [pc, #148]	; 43e04f48 <_end+0x43b84abc>
43e04eb0:	e24dd008 	sub	sp, sp, #8
43e04eb4:	e28d3004 	add	r3, sp, #4
43e04eb8:	e08f2002 	add	r2, pc, r2
43e04ebc:	ebfffe86 	bl	43e048dc <_end+0x43b84450>
43e04ec0:	e2505000 	subs	r5, r0, #0
43e04ec4:	059d0004 	ldreq	r0, [sp, #4]
43e04ec8:	0a00001a 	beq	43e04f38 <_end+0x43b84aac>
43e04ecc:	e1a00004 	mov	r0, r4
43e04ed0:	e59d6004 	ldr	r6, [sp, #4]
43e04ed4:	ebfffa24 	bl	43e0376c <_end+0x43b832e0>
43e04ed8:	e1560000 	cmp	r6, r0
43e04edc:	e1a07000 	mov	r7, r0
43e04ee0:	ba000016 	blt	43e04f40 <_end+0x43b84ab4>
43e04ee4:	e2808001 	add	r8, r0, #1
43e04ee8:	ea000008 	b	43e04f10 <_end+0x43b84a84>
43e04eec:	ebfffa3b 	bl	43e037e0 <_end+0x43b83354>
43e04ef0:	e3500000 	cmp	r0, #0
43e04ef4:	e0653000 	rsb	r3, r5, r0
43e04ef8:	e2805001 	add	r5, r0, #1
43e04efc:	0a00000f 	beq	43e04f40 <_end+0x43b84ab4>
43e04f00:	e1e03003 	mvn	r3, r3
43e04f04:	e0866003 	add	r6, r6, r3
43e04f08:	e1570006 	cmp	r7, r6
43e04f0c:	ca00000b 	bgt	43e04f40 <_end+0x43b84ab4>
43e04f10:	e1a01005 	mov	r1, r5
43e04f14:	e1a02008 	mov	r2, r8
43e04f18:	e1a00004 	mov	r0, r4
43e04f1c:	ebfffa1a 	bl	43e0378c <_end+0x43b83300>
43e04f20:	e1a02006 	mov	r2, r6
43e04f24:	e3a01000 	mov	r1, #0
43e04f28:	e2503000 	subs	r3, r0, #0
43e04f2c:	e1a00005 	mov	r0, r5
43e04f30:	1affffed 	bne	43e04eec <_end+0x43b84a60>
43e04f34:	e1a00003 	mov	r0, r3
43e04f38:	e28dd008 	add	sp, sp, #8
43e04f3c:	e8bd81f0 	pop	{r4, r5, r6, r7, r8, pc}
43e04f40:	e3a00001 	mov	r0, #1
43e04f44:	eafffffb 	b	43e04f38 <_end+0x43b84aac>
43e04f48:	0000184c 	andeq	r1, r0, ip, asr #16
43e04f4c:	e92d4070 	push	{r4, r5, r6, lr}
43e04f50:	e1a06002 	mov	r6, r2
43e04f54:	e1a05000 	mov	r5, r0
43e04f58:	e1a04001 	mov	r4, r1
43e04f5c:	eb000067 	bl	43e05100 <_end+0x43b84c74>
43e04f60:	e2502000 	subs	r2, r0, #0
43e04f64:	0a000001 	beq	43e04f70 <_end+0x43b84ae4>
43e04f68:	e1a00002 	mov	r0, r2
43e04f6c:	e8bd8070 	pop	{r4, r5, r6, pc}
43e04f70:	e1a00005 	mov	r0, r5
43e04f74:	e1a01004 	mov	r1, r4
43e04f78:	ea00000b 	b	43e04fac <_end+0x43b84b20>
43e04f7c:	e1a01004 	mov	r1, r4
43e04f80:	e1a02006 	mov	r2, r6
43e04f84:	e1a00005 	mov	r0, r5
43e04f88:	ebffffc5 	bl	43e04ea4 <_end+0x43b84a18>
43e04f8c:	e1a01004 	mov	r1, r4
43e04f90:	e3a02000 	mov	r2, #0
43e04f94:	e1a03000 	mov	r3, r0
43e04f98:	e3730001 	cmn	r3, #1
43e04f9c:	e1a00005 	mov	r0, r5
43e04fa0:	ba000007 	blt	43e04fc4 <_end+0x43b84b38>
43e04fa4:	e1530002 	cmp	r3, r2
43e04fa8:	0a000002 	beq	43e04fb8 <_end+0x43b84b2c>
43e04fac:	eb0000e1 	bl	43e05338 <_end+0x43b84eac>
43e04fb0:	e2504000 	subs	r4, r0, #0
43e04fb4:	aafffff0 	bge	43e04f7c <_end+0x43b84af0>
43e04fb8:	e1a02004 	mov	r2, r4
43e04fbc:	e1a00002 	mov	r0, r2
43e04fc0:	e8bd8070 	pop	{r4, r5, r6, pc}
43e04fc4:	e1a02003 	mov	r2, r3
43e04fc8:	e1a00002 	mov	r0, r2
43e04fcc:	e8bd8070 	pop	{r4, r5, r6, pc}
43e04fd0:	e92d4010 	push	{r4, lr}
43e04fd4:	e24dd008 	sub	sp, sp, #8
43e04fd8:	e1a04003 	mov	r4, r3
43e04fdc:	e28d3004 	add	r3, sp, #4
43e04fe0:	ebfffe3d 	bl	43e048dc <_end+0x43b84450>
43e04fe4:	e3500000 	cmp	r0, #0
43e04fe8:	059d0004 	ldreq	r0, [sp, #4]
43e04fec:	0a000007 	beq	43e05010 <_end+0x43b84b84>
43e04ff0:	e59d2004 	ldr	r2, [sp, #4]
43e04ff4:	e59d3010 	ldr	r3, [sp, #16]
43e04ff8:	e1520003 	cmp	r2, r3
43e04ffc:	13e00002 	mvnne	r0, #2
43e05000:	1a000002 	bne	43e05010 <_end+0x43b84b84>
43e05004:	e1a01004 	mov	r1, r4
43e05008:	ebfff990 	bl	43e03650 <_end+0x43b831c4>
43e0500c:	e3a00000 	mov	r0, #0
43e05010:	e28dd008 	add	sp, sp, #8
43e05014:	e8bd8010 	pop	{r4, pc}
43e05018:	e52de004 	push	{lr}		; (str lr, [sp, #-4]!)
43e0501c:	e24dd00c 	sub	sp, sp, #12
43e05020:	e28d3004 	add	r3, sp, #4
43e05024:	ebfffe01 	bl	43e04830 <_end+0x43b843a4>
43e05028:	e3500000 	cmp	r0, #0
43e0502c:	059d0004 	ldreq	r0, [sp, #4]
43e05030:	0a000009 	beq	43e0505c <_end+0x43b84bd0>
43e05034:	e59d3004 	ldr	r3, [sp, #4]
43e05038:	e283300c 	add	r3, r3, #12
43e0503c:	e0803003 	add	r3, r0, r3
43e05040:	e1500003 	cmp	r0, r3
43e05044:	2a000003 	bcs	43e05058 <_end+0x43b84bcc>
43e05048:	e3a02301 	mov	r2, #67108864	; 0x4000000
43e0504c:	e4802004 	str	r2, [r0], #4
43e05050:	e1500003 	cmp	r0, r3
43e05054:	3afffffc 	bcc	43e0504c <_end+0x43b84bc0>
43e05058:	e3a00000 	mov	r0, #0
43e0505c:	e28dd00c 	add	sp, sp, #12
43e05060:	e8bd8000 	pop	{pc}
43e05064:	e92d4010 	push	{r4, lr}
43e05068:	e3510000 	cmp	r1, #0
43e0506c:	e24dd008 	sub	sp, sp, #8
43e05070:	e3a03000 	mov	r3, #0
43e05074:	e1a04000 	mov	r4, r0
43e05078:	e58d3004 	str	r3, [sp, #4]
43e0507c:	ba000007 	blt	43e050a0 <_end+0x43b84c14>
43e05080:	e1a00004 	mov	r0, r4
43e05084:	e28d2004 	add	r2, sp, #4
43e05088:	eb0000aa 	bl	43e05338 <_end+0x43b84eac>
43e0508c:	e59d3004 	ldr	r3, [sp, #4]
43e05090:	e3500000 	cmp	r0, #0
43e05094:	a3530000 	cmpge	r3, #0
43e05098:	e1a01000 	mov	r1, r0
43e0509c:	aafffff7 	bge	43e05080 <_end+0x43b84bf4>
43e050a0:	e1a00001 	mov	r0, r1
43e050a4:	e28dd008 	add	sp, sp, #8
43e050a8:	e8bd8010 	pop	{r4, pc}
43e050ac:	e92d4070 	push	{r4, r5, r6, lr}
43e050b0:	e1a06000 	mov	r6, r0
43e050b4:	e1a05001 	mov	r5, r1
43e050b8:	ebffffe9 	bl	43e05064 <_end+0x43b84bd8>
43e050bc:	e2504000 	subs	r4, r0, #0
43e050c0:	ba00000c 	blt	43e050f8 <_end+0x43b84c6c>
43e050c4:	e1a00006 	mov	r0, r6
43e050c8:	e1a01005 	mov	r1, r5
43e050cc:	e3a02000 	mov	r2, #0
43e050d0:	e0654004 	rsb	r4, r5, r4
43e050d4:	eb000026 	bl	43e05174 <_end+0x43b84ce8>
43e050d8:	e0804004 	add	r4, r0, r4
43e050dc:	e1500004 	cmp	r0, r4
43e050e0:	2a000003 	bcs	43e050f4 <_end+0x43b84c68>
43e050e4:	e3a03301 	mov	r3, #67108864	; 0x4000000
43e050e8:	e4803004 	str	r3, [r0], #4
43e050ec:	e1500004 	cmp	r0, r4
43e050f0:	3afffffc 	bcc	43e050e8 <_end+0x43b84c5c>
43e050f4:	e3a04000 	mov	r4, #0
43e050f8:	e1a00004 	mov	r0, r4
43e050fc:	e8bd8070 	pop	{r4, r5, r6, pc}
43e05100:	e30f3eed 	movw	r3, #65261	; 0xfeed
43e05104:	e34d300d 	movt	r3, #53261	; 0xd00d
43e05108:	e5902000 	ldr	r2, [r0]
43e0510c:	e6bf2f32 	rev	r2, r2
43e05110:	e1520003 	cmp	r2, r3
43e05114:	0a000009 	beq	43e05140 <_end+0x43b84cb4>
43e05118:	e3003112 	movw	r3, #274	; 0x112
43e0511c:	e3423ff2 	movt	r3, #12274	; 0x2ff2
43e05120:	e1520003 	cmp	r2, r3
43e05124:	1a000010 	bne	43e0516c <_end+0x43b84ce0>
43e05128:	e5903024 	ldr	r3, [r0, #36]	; 0x24
43e0512c:	e6bf3f33 	rev	r3, r3
43e05130:	e3530000 	cmp	r3, #0
43e05134:	03e00006 	mvneq	r0, #6
43e05138:	13a00000 	movne	r0, #0
43e0513c:	e12fff1e 	bx	lr
43e05140:	e5903014 	ldr	r3, [r0, #20]
43e05144:	e6bf3f33 	rev	r3, r3
43e05148:	e353000f 	cmp	r3, #15
43e0514c:	93e00009 	mvnls	r0, #9
43e05150:	912fff1e 	bxls	lr
43e05154:	e5903018 	ldr	r3, [r0, #24]
43e05158:	e6bf3f33 	rev	r3, r3
43e0515c:	e3530011 	cmp	r3, #17
43e05160:	83e00009 	mvnhi	r0, #9
43e05164:	93a00000 	movls	r0, #0
43e05168:	e12fff1e 	bx	lr
43e0516c:	e3e00008 	mvn	r0, #8
43e05170:	e12fff1e 	bx	lr
43e05174:	e5903014 	ldr	r3, [r0, #20]
43e05178:	e6bf3f33 	rev	r3, r3
43e0517c:	e3530010 	cmp	r3, #16
43e05180:	9a000006 	bls	43e051a0 <_end+0x43b84d14>
43e05184:	e0923001 	adds	r3, r2, r1
43e05188:	23a00000 	movcs	r0, #0
43e0518c:	212fff1e 	bxcs	lr
43e05190:	e590c024 	ldr	ip, [r0, #36]	; 0x24
43e05194:	e6bfcf3c 	rev	ip, ip
43e05198:	e153000c 	cmp	r3, ip
43e0519c:	8a000006 	bhi	43e051bc <_end+0x43b84d30>
43e051a0:	e5903008 	ldr	r3, [r0, #8]
43e051a4:	e6bf3f33 	rev	r3, r3
43e051a8:	e0831001 	add	r1, r3, r1
43e051ac:	e0800001 	add	r0, r0, r1
43e051b0:	e1700002 	cmn	r0, r2
43e051b4:	23a00000 	movcs	r0, #0
43e051b8:	e12fff1e 	bx	lr
43e051bc:	e3a00000 	mov	r0, #0
43e051c0:	e12fff1e 	bx	lr
43e051c4:	e92d41f0 	push	{r4, r5, r6, r7, r8, lr}
43e051c8:	e1a06002 	mov	r6, r2
43e051cc:	e3e03007 	mvn	r3, #7
43e051d0:	e3a02004 	mov	r2, #4
43e051d4:	e5863000 	str	r3, [r6]
43e051d8:	e1a07000 	mov	r7, r0
43e051dc:	e1a08001 	mov	r8, r1
43e051e0:	ebffffe3 	bl	43e05174 <_end+0x43b84ce8>
43e051e4:	e3500000 	cmp	r0, #0
43e051e8:	0a000024 	beq	43e05280 <_end+0x43b84df4>
43e051ec:	e5905000 	ldr	r5, [r0]
43e051f0:	e3e0200a 	mvn	r2, #10
43e051f4:	e6bf5f35 	rev	r5, r5
43e051f8:	e2453001 	sub	r3, r5, #1
43e051fc:	e2884004 	add	r4, r8, #4
43e05200:	e5862000 	str	r2, [r6]
43e05204:	e3530008 	cmp	r3, #8
43e05208:	908ff103 	addls	pc, pc, r3, lsl #2
43e0520c:	ea00001b 	b	43e05280 <_end+0x43b84df4>
43e05210:	ea000007 	b	43e05234 <_end+0x43b84da8>
43e05214:	ea000010 	b	43e0525c <_end+0x43b84dd0>
43e05218:	ea00001b 	b	43e0528c <_end+0x43b84e00>
43e0521c:	ea00000e 	b	43e0525c <_end+0x43b84dd0>
43e05220:	ea000016 	b	43e05280 <_end+0x43b84df4>
43e05224:	ea000015 	b	43e05280 <_end+0x43b84df4>
43e05228:	ea000014 	b	43e05280 <_end+0x43b84df4>
43e0522c:	ea000013 	b	43e05280 <_end+0x43b84df4>
43e05230:	ea000009 	b	43e0525c <_end+0x43b84dd0>
43e05234:	e1a01004 	mov	r1, r4
43e05238:	e3a02001 	mov	r2, #1
43e0523c:	e1a00007 	mov	r0, r7
43e05240:	e0844002 	add	r4, r4, r2
43e05244:	ebffffca 	bl	43e05174 <_end+0x43b84ce8>
43e05248:	e3500000 	cmp	r0, #0
43e0524c:	0a00000b 	beq	43e05280 <_end+0x43b84df4>
43e05250:	e5d03000 	ldrb	r3, [r0]
43e05254:	e3530000 	cmp	r3, #0
43e05258:	1afffff5 	bne	43e05234 <_end+0x43b84da8>
43e0525c:	e0682004 	rsb	r2, r8, r4
43e05260:	e1a01008 	mov	r1, r8
43e05264:	e1a00007 	mov	r0, r7
43e05268:	ebffffc1 	bl	43e05174 <_end+0x43b84ce8>
43e0526c:	e3500000 	cmp	r0, #0
43e05270:	12844003 	addne	r4, r4, #3
43e05274:	13c44003 	bicne	r4, r4, #3
43e05278:	15864000 	strne	r4, [r6]
43e0527c:	1a000000 	bne	43e05284 <_end+0x43b84df8>
43e05280:	e3a05009 	mov	r5, #9
43e05284:	e1a00005 	mov	r0, r5
43e05288:	e8bd81f0 	pop	{r4, r5, r6, r7, r8, pc}
43e0528c:	e1a00007 	mov	r0, r7
43e05290:	e1a01004 	mov	r1, r4
43e05294:	e3a02004 	mov	r2, #4
43e05298:	ebffffb5 	bl	43e05174 <_end+0x43b84ce8>
43e0529c:	e3500000 	cmp	r0, #0
43e052a0:	0afffff6 	beq	43e05280 <_end+0x43b84df4>
43e052a4:	e288300c 	add	r3, r8, #12
43e052a8:	e5904000 	ldr	r4, [r0]
43e052ac:	e6bf4f34 	rev	r4, r4
43e052b0:	e0834004 	add	r4, r3, r4
43e052b4:	eaffffe8 	b	43e0525c <_end+0x43b84dd0>
43e052b8:	e52de004 	push	{lr}		; (str lr, [sp, #-4]!)
43e052bc:	e2513000 	subs	r3, r1, #0
43e052c0:	e24dd00c 	sub	sp, sp, #12
43e052c4:	e58d1004 	str	r1, [sp, #4]
43e052c8:	ba000008 	blt	43e052f0 <_end+0x43b84e64>
43e052cc:	e3130003 	tst	r3, #3
43e052d0:	1a000006 	bne	43e052f0 <_end+0x43b84e64>
43e052d4:	e28d2004 	add	r2, sp, #4
43e052d8:	ebffffb9 	bl	43e051c4 <_end+0x43b84d38>
43e052dc:	e3500001 	cmp	r0, #1
43e052e0:	059d0004 	ldreq	r0, [sp, #4]
43e052e4:	1a000001 	bne	43e052f0 <_end+0x43b84e64>
43e052e8:	e28dd00c 	add	sp, sp, #12
43e052ec:	e8bd8000 	pop	{pc}
43e052f0:	e3e00003 	mvn	r0, #3
43e052f4:	eafffffb 	b	43e052e8 <_end+0x43b84e5c>
43e052f8:	e52de004 	push	{lr}		; (str lr, [sp, #-4]!)
43e052fc:	e2513000 	subs	r3, r1, #0
43e05300:	e24dd00c 	sub	sp, sp, #12
43e05304:	e58d1004 	str	r1, [sp, #4]
43e05308:	ba000008 	blt	43e05330 <_end+0x43b84ea4>
43e0530c:	e3130003 	tst	r3, #3
43e05310:	1a000006 	bne	43e05330 <_end+0x43b84ea4>
43e05314:	e28d2004 	add	r2, sp, #4
43e05318:	ebffffa9 	bl	43e051c4 <_end+0x43b84d38>
43e0531c:	e3500003 	cmp	r0, #3
43e05320:	059d0004 	ldreq	r0, [sp, #4]
43e05324:	1a000001 	bne	43e05330 <_end+0x43b84ea4>
43e05328:	e28dd00c 	add	sp, sp, #12
43e0532c:	e8bd8000 	pop	{pc}
43e05330:	e3e00003 	mvn	r0, #3
43e05334:	eafffffb 	b	43e05328 <_end+0x43b84e9c>
43e05338:	e92d40f0 	push	{r4, r5, r6, r7, lr}
43e0533c:	e3510000 	cmp	r1, #0
43e05340:	e24dd00c 	sub	sp, sp, #12
43e05344:	e3a04000 	mov	r4, #0
43e05348:	e1a06000 	mov	r6, r0
43e0534c:	e1a05002 	mov	r5, r2
43e05350:	e58d4004 	str	r4, [sp, #4]
43e05354:	ba000004 	blt	43e0536c <_end+0x43b84ee0>
43e05358:	ebffffd6 	bl	43e052b8 <_end+0x43b84e2c>
43e0535c:	e3500000 	cmp	r0, #0
43e05360:	e1a04000 	mov	r4, r0
43e05364:	e58d0004 	str	r0, [sp, #4]
43e05368:	ba000010 	blt	43e053b0 <_end+0x43b84f24>
43e0536c:	e28d7004 	add	r7, sp, #4
43e05370:	e1a01004 	mov	r1, r4
43e05374:	e1a00006 	mov	r0, r6
43e05378:	e1a02007 	mov	r2, r7
43e0537c:	ebffff90 	bl	43e051c4 <_end+0x43b84d38>
43e05380:	e3500002 	cmp	r0, #2
43e05384:	0a000014 	beq	43e053dc <_end+0x43b84f50>
43e05388:	e3500009 	cmp	r0, #9
43e0538c:	0a00000a 	beq	43e053bc <_end+0x43b84f30>
43e05390:	e3500001 	cmp	r0, #1
43e05394:	0a000001 	beq	43e053a0 <_end+0x43b84f14>
43e05398:	e59d4004 	ldr	r4, [sp, #4]
43e0539c:	eafffff3 	b	43e05370 <_end+0x43b84ee4>
43e053a0:	e3550000 	cmp	r5, #0
43e053a4:	15953000 	ldrne	r3, [r5]
43e053a8:	12833001 	addne	r3, r3, #1
43e053ac:	15853000 	strne	r3, [r5]
43e053b0:	e1a00004 	mov	r0, r4
43e053b4:	e28dd00c 	add	sp, sp, #12
43e053b8:	e8bd80f0 	pop	{r4, r5, r6, r7, pc}
43e053bc:	e59d4004 	ldr	r4, [sp, #4]
43e053c0:	e3540000 	cmp	r4, #0
43e053c4:	a3e04000 	mvnge	r4, #0
43e053c8:	aafffff8 	bge	43e053b0 <_end+0x43b84f24>
43e053cc:	e3550000 	cmp	r5, #0
43e053d0:	03740008 	cmneq	r4, #8
43e053d4:	03e04000 	mvneq	r4, #0
43e053d8:	eafffff4 	b	43e053b0 <_end+0x43b84f24>
43e053dc:	e3550000 	cmp	r5, #0
43e053e0:	0affffec 	beq	43e05398 <_end+0x43b84f0c>
43e053e4:	e5953000 	ldr	r3, [r5]
43e053e8:	e2433001 	sub	r3, r3, #1
43e053ec:	e5853000 	str	r3, [r5]
43e053f0:	e3530000 	cmp	r3, #0
43e053f4:	aaffffe7 	bge	43e05398 <_end+0x43b84f0c>
43e053f8:	e59d4004 	ldr	r4, [sp, #4]
43e053fc:	eaffffeb 	b	43e053b0 <_end+0x43b84f24>
43e05400:	e92d40f8 	push	{r3, r4, r5, r6, r7, lr}
43e05404:	e1a04000 	mov	r4, r0
43e05408:	e1a00002 	mov	r0, r2
43e0540c:	e1a07001 	mov	r7, r1
43e05410:	e1a06002 	mov	r6, r2
43e05414:	ebfff8d4 	bl	43e0376c <_end+0x43b832e0>
43e05418:	e2805001 	add	r5, r0, #1
43e0541c:	e0657007 	rsb	r7, r5, r7
43e05420:	e0947007 	adds	r7, r4, r7
43e05424:	3a000003 	bcc	43e05438 <_end+0x43b84fac>
43e05428:	ea00000a 	b	43e05458 <_end+0x43b84fcc>
43e0542c:	e2844001 	add	r4, r4, #1
43e05430:	e1570004 	cmp	r7, r4
43e05434:	3a000007 	bcc	43e05458 <_end+0x43b84fcc>
43e05438:	e1a00004 	mov	r0, r4
43e0543c:	e1a01006 	mov	r1, r6
43e05440:	e1a02005 	mov	r2, r5
43e05444:	ebfff8d0 	bl	43e0378c <_end+0x43b83300>
43e05448:	e3500000 	cmp	r0, #0
43e0544c:	1afffff6 	bne	43e0542c <_end+0x43b84fa0>
43e05450:	e1a00004 	mov	r0, r4
43e05454:	e8bd80f8 	pop	{r3, r4, r5, r6, r7, pc}
43e05458:	e3a04000 	mov	r4, #0
43e0545c:	e1a00004 	mov	r0, r4
43e05460:	e8bd80f8 	pop	{r3, r4, r5, r6, r7, pc}
43e05464:	e92d40f8 	push	{r3, r4, r5, r6, r7, lr}
43e05468:	e1a05000 	mov	r5, r0
43e0546c:	e1a06001 	mov	r6, r1
43e05470:	e1a07002 	mov	r7, r2
43e05474:	ebffff21 	bl	43e05100 <_end+0x43b84c74>
43e05478:	e2504000 	subs	r4, r0, #0
43e0547c:	1a000008 	bne	43e054a4 <_end+0x43b85018>
43e05480:	e5953004 	ldr	r3, [r5, #4]
43e05484:	e6bf3f33 	rev	r3, r3
43e05488:	e1570003 	cmp	r7, r3
43e0548c:	33e04002 	mvncc	r4, #2
43e05490:	3a000003 	bcc	43e054a4 <_end+0x43b85018>
43e05494:	e1a00006 	mov	r0, r6
43e05498:	e1a01005 	mov	r1, r5
43e0549c:	e1a02003 	mov	r2, r3
43e054a0:	ebfff8a1 	bl	43e0372c <_end+0x43b832a0>
43e054a4:	e1a00004 	mov	r0, r4
43e054a8:	e8bd80f8 	pop	{r3, r4, r5, r6, r7, pc}
43e054ac:	e92d4038 	push	{r3, r4, r5, lr}
43e054b0:	e1a05000 	mov	r5, r0
43e054b4:	e1a04001 	mov	r4, r1
43e054b8:	ebfffd4b 	bl	43e049ec <_end+0x43b84560>
43e054bc:	e3700001 	cmn	r0, #1
43e054c0:	18bd8038 	popne	{r3, r4, r5, pc}
43e054c4:	e1a00005 	mov	r0, r5
43e054c8:	e3a01000 	mov	r1, #0
43e054cc:	e1a02004 	mov	r2, r4
43e054d0:	e8bd4038 	pop	{r3, r4, r5, lr}
43e054d4:	eafffb25 	b	43e04170 <_end+0x43b83ce4>
43e054d8:	e92d4070 	push	{r4, r5, r6, lr}
43e054dc:	e1a04001 	mov	r4, r1
43e054e0:	e59f1048 	ldr	r1, [pc, #72]	; 43e05530 <_end+0x43b850a4>
43e054e4:	e24dd010 	sub	sp, sp, #16
43e054e8:	e1a05000 	mov	r5, r0
43e054ec:	e1a06002 	mov	r6, r2
43e054f0:	e08f1001 	add	r1, pc, r1
43e054f4:	ebffffec 	bl	43e054ac <_end+0x43b85020>
43e054f8:	e2501000 	subs	r1, r0, #0
43e054fc:	ba000008 	blt	43e05524 <_end+0x43b85098>
43e05500:	e28d3010 	add	r3, sp, #16
43e05504:	e1a00005 	mov	r0, r5
43e05508:	e6bf6f36 	rev	r6, r6
43e0550c:	e1a02004 	mov	r2, r4
43e05510:	e5236004 	str	r6, [r3, #-4]!
43e05514:	e3a0c004 	mov	ip, #4
43e05518:	e58dc000 	str	ip, [sp]
43e0551c:	ebfffa43 	bl	43e03e30 <_end+0x43b839a4>
43e05520:	e1a01000 	mov	r1, r0
43e05524:	e1a00001 	mov	r0, r1
43e05528:	e28dd010 	add	sp, sp, #16
43e0552c:	e8bd8070 	pop	{r4, r5, r6, pc}
43e05530:	00001220 	andeq	r1, r0, r0, lsr #4
43e05534:	e92d4ff0 	push	{r4, r5, r6, r7, r8, r9, sl, fp, lr}
43e05538:	e1a04000 	mov	r4, r0
43e0553c:	e2100003 	ands	r0, r0, #3
43e05540:	e24dd05c 	sub	sp, sp, #92	; 0x5c
43e05544:	e1a05001 	mov	r5, r1
43e05548:	1a000009 	bne	43e05574 <_end+0x43b850e8>
43e0554c:	e5949000 	ldr	r9, [r4]
43e05550:	e3a03edd 	mov	r3, #3536	; 0xdd0
43e05554:	e34e3dfe 	movt	r3, #60926	; 0xedfe
43e05558:	e1590003 	cmp	r9, r3
43e0555c:	0a000005 	beq	43e05578 <_end+0x43b850ec>
43e05560:	e5940004 	ldr	r0, [r4, #4]
43e05564:	e3a03001 	mov	r3, #1
43e05568:	e3453441 	movt	r3, #21569	; 0x5441
43e0556c:	e1500003 	cmp	r0, r3
43e05570:	0a000002 	beq	43e05580 <_end+0x43b850f4>
43e05574:	e3a00001 	mov	r0, #1
43e05578:	e28dd05c 	add	sp, sp, #92	; 0x5c
43e0557c:	e8bd8ff0 	pop	{r4, r5, r6, r7, r8, r9, sl, fp, pc}
43e05580:	e3590002 	cmp	r9, #2
43e05584:	13590005 	cmpne	r9, #5
43e05588:	03a09000 	moveq	r9, #0
43e0558c:	13a09001 	movne	r9, #1
43e05590:	1afffff7 	bne	43e05574 <_end+0x43b850e8>
43e05594:	e1a00001 	mov	r0, r1
43e05598:	ebfffb18 	bl	43e04200 <_end+0x43b83d74>
43e0559c:	e3500000 	cmp	r0, #0
43e055a0:	bafffff4 	blt	43e05578 <_end+0x43b850ec>
43e055a4:	e5943000 	ldr	r3, [r4]
43e055a8:	e3530000 	cmp	r3, #0
43e055ac:	0a00004c 	beq	43e056e4 <_end+0x43b85258>
43e055b0:	e59f0164 	ldr	r0, [pc, #356]	; 43e0571c <_end+0x43b85290>
43e055b4:	e3a06009 	mov	r6, #9
43e055b8:	e59f2160 	ldr	r2, [pc, #352]	; 43e05720 <_end+0x43b85294>
43e055bc:	e3a07005 	mov	r7, #5
43e055c0:	e59fb15c 	ldr	fp, [pc, #348]	; 43e05724 <_end+0x43b85298>
43e055c4:	e08f0000 	add	r0, pc, r0
43e055c8:	e59f3158 	ldr	r3, [pc, #344]	; 43e05728 <_end+0x43b8529c>
43e055cc:	e08f2002 	add	r2, pc, r2
43e055d0:	e58d000c 	str	r0, [sp, #12]
43e055d4:	e08fb00b 	add	fp, pc, fp
43e055d8:	e08f3003 	add	r3, pc, r3
43e055dc:	e58d2010 	str	r2, [sp, #16]
43e055e0:	e3456441 	movt	r6, #21569	; 0x5441
43e055e4:	e58d3014 	str	r3, [sp, #20]
43e055e8:	e3457442 	movt	r7, #21570	; 0x5442
43e055ec:	e1a0a005 	mov	sl, r5
43e055f0:	ea000006 	b	43e05610 <_end+0x43b85184>
43e055f4:	e1530007 	cmp	r3, r7
43e055f8:	0a00003c 	beq	43e056f0 <_end+0x43b85264>
43e055fc:	e5943000 	ldr	r3, [r4]
43e05600:	e1a03103 	lsl	r3, r3, #2
43e05604:	e7b43003 	ldr	r3, [r4, r3]!
43e05608:	e3530000 	cmp	r3, #0
43e0560c:	0a000024 	beq	43e056a4 <_end+0x43b85218>
43e05610:	e5943004 	ldr	r3, [r4, #4]
43e05614:	e3a02002 	mov	r2, #2
43e05618:	e3452441 	movt	r2, #21569	; 0x5441
43e0561c:	e1530006 	cmp	r3, r6
43e05620:	0a00000f 	beq	43e05664 <_end+0x43b851d8>
43e05624:	e1530002 	cmp	r3, r2
43e05628:	1afffff1 	bne	43e055f4 <_end+0x43b85168>
43e0562c:	e359000f 	cmp	r9, #15
43e05630:	8afffff1 	bhi	43e055fc <_end+0x43b85170>
43e05634:	e5943008 	ldr	r3, [r4, #8]
43e05638:	e28d0058 	add	r0, sp, #88	; 0x58
43e0563c:	e0801109 	add	r1, r0, r9, lsl #2
43e05640:	e3530000 	cmp	r3, #0
43e05644:	0affffec 	beq	43e055fc <_end+0x43b85170>
43e05648:	e594000c 	ldr	r0, [r4, #12]
43e0564c:	e2899002 	add	r9, r9, #2
43e05650:	e6bf0f30 	rev	r0, r0
43e05654:	e6bf3f33 	rev	r3, r3
43e05658:	e5010040 	str	r0, [r1, #-64]	; 0x40
43e0565c:	e501303c 	str	r3, [r1, #-60]	; 0x3c
43e05660:	eaffffe5 	b	43e055fc <_end+0x43b85170>
43e05664:	e1a0100b 	mov	r1, fp
43e05668:	e1a0000a 	mov	r0, sl
43e0566c:	ebffff8e 	bl	43e054ac <_end+0x43b85020>
43e05670:	e2845008 	add	r5, r4, #8
43e05674:	e2508000 	subs	r8, r0, #0
43e05678:	e1a00005 	mov	r0, r5
43e0567c:	baffffde 	blt	43e055fc <_end+0x43b85170>
43e05680:	ebfff839 	bl	43e0376c <_end+0x43b832e0>
43e05684:	e1a01008 	mov	r1, r8
43e05688:	e59d2014 	ldr	r2, [sp, #20]
43e0568c:	e1a03005 	mov	r3, r5
43e05690:	e280c001 	add	ip, r0, #1
43e05694:	e1a0000a 	mov	r0, sl
43e05698:	e58dc000 	str	ip, [sp]
43e0569c:	ebfff9e3 	bl	43e03e30 <_end+0x43b839a4>
43e056a0:	eaffffd5 	b	43e055fc <_end+0x43b85170>
43e056a4:	e3590000 	cmp	r9, #0
43e056a8:	e1a0500a 	mov	r5, sl
43e056ac:	0a00000c 	beq	43e056e4 <_end+0x43b85258>
43e056b0:	e59f1074 	ldr	r1, [pc, #116]	; 43e0572c <_end+0x43b852a0>
43e056b4:	e1a0000a 	mov	r0, sl
43e056b8:	e08f1001 	add	r1, pc, r1
43e056bc:	ebffff7a 	bl	43e054ac <_end+0x43b85020>
43e056c0:	e2501000 	subs	r1, r0, #0
43e056c4:	ba000006 	blt	43e056e4 <_end+0x43b85258>
43e056c8:	e59f2060 	ldr	r2, [pc, #96]	; 43e05730 <_end+0x43b852a4>
43e056cc:	e1a0000a 	mov	r0, sl
43e056d0:	e28d3018 	add	r3, sp, #24
43e056d4:	e1a09109 	lsl	r9, r9, #2
43e056d8:	e08f2002 	add	r2, pc, r2
43e056dc:	e58d9000 	str	r9, [sp]
43e056e0:	ebfff9d2 	bl	43e03e30 <_end+0x43b839a4>
43e056e4:	e1a00005 	mov	r0, r5
43e056e8:	ebfffb35 	bl	43e043c4 <_end+0x43b83f38>
43e056ec:	eaffffa1 	b	43e05578 <_end+0x43b850ec>
43e056f0:	e5945008 	ldr	r5, [r4, #8]
43e056f4:	e1a0000a 	mov	r0, sl
43e056f8:	e594800c 	ldr	r8, [r4, #12]
43e056fc:	e59d100c 	ldr	r1, [sp, #12]
43e05700:	e1a02005 	mov	r2, r5
43e05704:	ebffff73 	bl	43e054d8 <_end+0x43b8504c>
43e05708:	e1a0000a 	mov	r0, sl
43e0570c:	e59d1010 	ldr	r1, [sp, #16]
43e05710:	e0882005 	add	r2, r8, r5
43e05714:	ebffff6f 	bl	43e054d8 <_end+0x43b8504c>
43e05718:	eaffffb7 	b	43e055fc <_end+0x43b85170>
43e0571c:	00001160 	andeq	r1, r0, r0, ror #2
43e05720:	0000116c 	andeq	r1, r0, ip, ror #2
43e05724:	0000113c 	andeq	r1, r0, ip, lsr r1
43e05728:	00001140 	andeq	r1, r0, r0, asr #2
43e0572c:	00001094 	muleq	r0, r4, r0
43e05730:	0000107c 	andeq	r1, r0, ip, ror r0
43e05734:	e2512001 	subs	r2, r1, #1
43e05738:	01a0f00e 	moveq	pc, lr
43e0573c:	3a0000b8 	bcc	43e05a24 <_end+0x43b85598>
43e05740:	e1500001 	cmp	r0, r1
43e05744:	9a00001a 	bls	43e057b4 <_end+0x43b85328>
43e05748:	e1110002 	tst	r1, r2
43e0574c:	0a00001b 	beq	43e057c0 <_end+0x43b85334>
43e05750:	e16f3f11 	clz	r3, r1
43e05754:	e16f2f10 	clz	r2, r0
43e05758:	e0432002 	sub	r2, r3, r2
43e0575c:	e3a03001 	mov	r3, #1
43e05760:	e1a01211 	lsl	r1, r1, r2
43e05764:	e1a03213 	lsl	r3, r3, r2
43e05768:	e3a02000 	mov	r2, #0
43e0576c:	e1500001 	cmp	r0, r1
43e05770:	20400001 	subcs	r0, r0, r1
43e05774:	21822003 	orrcs	r2, r2, r3
43e05778:	e15000a1 	cmp	r0, r1, lsr #1
43e0577c:	204000a1 	subcs	r0, r0, r1, lsr #1
43e05780:	218220a3 	orrcs	r2, r2, r3, lsr #1
43e05784:	e1500121 	cmp	r0, r1, lsr #2
43e05788:	20400121 	subcs	r0, r0, r1, lsr #2
43e0578c:	21822123 	orrcs	r2, r2, r3, lsr #2
43e05790:	e15001a1 	cmp	r0, r1, lsr #3
43e05794:	204001a1 	subcs	r0, r0, r1, lsr #3
43e05798:	218221a3 	orrcs	r2, r2, r3, lsr #3
43e0579c:	e3500000 	cmp	r0, #0
43e057a0:	11b03223 	lsrsne	r3, r3, #4
43e057a4:	11a01221 	lsrne	r1, r1, #4
43e057a8:	1affffef 	bne	43e0576c <_end+0x43b852e0>
43e057ac:	e1a00002 	mov	r0, r2
43e057b0:	e1a0f00e 	mov	pc, lr
43e057b4:	03a00001 	moveq	r0, #1
43e057b8:	13a00000 	movne	r0, #0
43e057bc:	e1a0f00e 	mov	pc, lr
43e057c0:	e16f2f11 	clz	r2, r1
43e057c4:	e262201f 	rsb	r2, r2, #31
43e057c8:	e1a00230 	lsr	r0, r0, r2
43e057cc:	e1a0f00e 	mov	pc, lr
43e057d0:	e2512001 	subs	r2, r1, #1
43e057d4:	3a000092 	bcc	43e05a24 <_end+0x43b85598>
43e057d8:	11500001 	cmpne	r0, r1
43e057dc:	03a00000 	moveq	r0, #0
43e057e0:	81110002 	tsthi	r1, r2
43e057e4:	00000002 	andeq	r0, r0, r2
43e057e8:	91a0f00e 	movls	pc, lr
43e057ec:	e16f2f11 	clz	r2, r1
43e057f0:	e16f3f10 	clz	r3, r0
43e057f4:	e0422003 	sub	r2, r2, r3
43e057f8:	e1a01211 	lsl	r1, r1, r2
43e057fc:	e2522003 	subs	r2, r2, #3
43e05800:	ba00000e 	blt	43e05840 <_end+0x43b853b4>
43e05804:	e1500001 	cmp	r0, r1
43e05808:	20400001 	subcs	r0, r0, r1
43e0580c:	e15000a1 	cmp	r0, r1, lsr #1
43e05810:	204000a1 	subcs	r0, r0, r1, lsr #1
43e05814:	e1500121 	cmp	r0, r1, lsr #2
43e05818:	20400121 	subcs	r0, r0, r1, lsr #2
43e0581c:	e15001a1 	cmp	r0, r1, lsr #3
43e05820:	204001a1 	subcs	r0, r0, r1, lsr #3
43e05824:	e3500001 	cmp	r0, #1
43e05828:	e1a01221 	lsr	r1, r1, #4
43e0582c:	a2522004 	subsge	r2, r2, #4
43e05830:	aafffff3 	bge	43e05804 <_end+0x43b85378>
43e05834:	e3120003 	tst	r2, #3
43e05838:	13300000 	teqne	r0, #0
43e0583c:	0a00000a 	beq	43e0586c <_end+0x43b853e0>
43e05840:	e3720002 	cmn	r2, #2
43e05844:	ba000006 	blt	43e05864 <_end+0x43b853d8>
43e05848:	0a000002 	beq	43e05858 <_end+0x43b853cc>
43e0584c:	e1500001 	cmp	r0, r1
43e05850:	20400001 	subcs	r0, r0, r1
43e05854:	e1a010a1 	lsr	r1, r1, #1
43e05858:	e1500001 	cmp	r0, r1
43e0585c:	20400001 	subcs	r0, r0, r1
43e05860:	e1a010a1 	lsr	r1, r1, #1
43e05864:	e1500001 	cmp	r0, r1
43e05868:	20400001 	subcs	r0, r0, r1
43e0586c:	e1a0f00e 	mov	pc, lr
43e05870:	e3510000 	cmp	r1, #0
43e05874:	e020c001 	eor	ip, r0, r1
43e05878:	0a000069 	beq	43e05a24 <_end+0x43b85598>
43e0587c:	42611000 	rsbmi	r1, r1, #0
43e05880:	e2512001 	subs	r2, r1, #1
43e05884:	0a00001f 	beq	43e05908 <_end+0x43b8547c>
43e05888:	e1b03000 	movs	r3, r0
43e0588c:	42603000 	rsbmi	r3, r0, #0
43e05890:	e1530001 	cmp	r3, r1
43e05894:	9a00001e 	bls	43e05914 <_end+0x43b85488>
43e05898:	e1110002 	tst	r1, r2
43e0589c:	0a000020 	beq	43e05924 <_end+0x43b85498>
43e058a0:	e16f2f11 	clz	r2, r1
43e058a4:	e16f0f13 	clz	r0, r3
43e058a8:	e0420000 	sub	r0, r2, r0
43e058ac:	e3a02001 	mov	r2, #1
43e058b0:	e1a01011 	lsl	r1, r1, r0
43e058b4:	e1a02012 	lsl	r2, r2, r0
43e058b8:	e3a00000 	mov	r0, #0
43e058bc:	e1530001 	cmp	r3, r1
43e058c0:	20433001 	subcs	r3, r3, r1
43e058c4:	21800002 	orrcs	r0, r0, r2
43e058c8:	e15300a1 	cmp	r3, r1, lsr #1
43e058cc:	204330a1 	subcs	r3, r3, r1, lsr #1
43e058d0:	218000a2 	orrcs	r0, r0, r2, lsr #1
43e058d4:	e1530121 	cmp	r3, r1, lsr #2
43e058d8:	20433121 	subcs	r3, r3, r1, lsr #2
43e058dc:	21800122 	orrcs	r0, r0, r2, lsr #2
43e058e0:	e15301a1 	cmp	r3, r1, lsr #3
43e058e4:	204331a1 	subcs	r3, r3, r1, lsr #3
43e058e8:	218001a2 	orrcs	r0, r0, r2, lsr #3
43e058ec:	e3530000 	cmp	r3, #0
43e058f0:	11b02222 	lsrsne	r2, r2, #4
43e058f4:	11a01221 	lsrne	r1, r1, #4
43e058f8:	1affffef 	bne	43e058bc <_end+0x43b85430>
43e058fc:	e35c0000 	cmp	ip, #0
43e05900:	42600000 	rsbmi	r0, r0, #0
43e05904:	e1a0f00e 	mov	pc, lr
43e05908:	e13c0000 	teq	ip, r0
43e0590c:	42600000 	rsbmi	r0, r0, #0
43e05910:	e1a0f00e 	mov	pc, lr
43e05914:	33a00000 	movcc	r0, #0
43e05918:	01a00fcc 	asreq	r0, ip, #31
43e0591c:	03800001 	orreq	r0, r0, #1
43e05920:	e1a0f00e 	mov	pc, lr
43e05924:	e16f2f11 	clz	r2, r1
43e05928:	e262201f 	rsb	r2, r2, #31
43e0592c:	e35c0000 	cmp	ip, #0
43e05930:	e1a00233 	lsr	r0, r3, r2
43e05934:	42600000 	rsbmi	r0, r0, #0
43e05938:	e1a0f00e 	mov	pc, lr
43e0593c:	e3510000 	cmp	r1, #0
43e05940:	0a000037 	beq	43e05a24 <_end+0x43b85598>
43e05944:	42611000 	rsbmi	r1, r1, #0
43e05948:	e1b0c000 	movs	ip, r0
43e0594c:	42600000 	rsbmi	r0, r0, #0
43e05950:	e2512001 	subs	r2, r1, #1
43e05954:	11500001 	cmpne	r0, r1
43e05958:	03a00000 	moveq	r0, #0
43e0595c:	81110002 	tsthi	r1, r2
43e05960:	00000002 	andeq	r0, r0, r2
43e05964:	9a00001f 	bls	43e059e8 <_end+0x43b8555c>
43e05968:	e16f2f11 	clz	r2, r1
43e0596c:	e16f3f10 	clz	r3, r0
43e05970:	e0422003 	sub	r2, r2, r3
43e05974:	e1a01211 	lsl	r1, r1, r2
43e05978:	e2522003 	subs	r2, r2, #3
43e0597c:	ba00000e 	blt	43e059bc <_end+0x43b85530>
43e05980:	e1500001 	cmp	r0, r1
43e05984:	20400001 	subcs	r0, r0, r1
43e05988:	e15000a1 	cmp	r0, r1, lsr #1
43e0598c:	204000a1 	subcs	r0, r0, r1, lsr #1
43e05990:	e1500121 	cmp	r0, r1, lsr #2
43e05994:	20400121 	subcs	r0, r0, r1, lsr #2
43e05998:	e15001a1 	cmp	r0, r1, lsr #3
43e0599c:	204001a1 	subcs	r0, r0, r1, lsr #3
43e059a0:	e3500001 	cmp	r0, #1
43e059a4:	e1a01221 	lsr	r1, r1, #4
43e059a8:	a2522004 	subsge	r2, r2, #4
43e059ac:	aafffff3 	bge	43e05980 <_end+0x43b854f4>
43e059b0:	e3120003 	tst	r2, #3
43e059b4:	13300000 	teqne	r0, #0
43e059b8:	0a00000a 	beq	43e059e8 <_end+0x43b8555c>
43e059bc:	e3720002 	cmn	r2, #2
43e059c0:	ba000006 	blt	43e059e0 <_end+0x43b85554>
43e059c4:	0a000002 	beq	43e059d4 <_end+0x43b85548>
43e059c8:	e1500001 	cmp	r0, r1
43e059cc:	20400001 	subcs	r0, r0, r1
43e059d0:	e1a010a1 	lsr	r1, r1, #1
43e059d4:	e1500001 	cmp	r0, r1
43e059d8:	20400001 	subcs	r0, r0, r1
43e059dc:	e1a010a1 	lsr	r1, r1, #1
43e059e0:	e1500001 	cmp	r0, r1
43e059e4:	20400001 	subcs	r0, r0, r1
43e059e8:	e35c0000 	cmp	ip, #0
43e059ec:	42600000 	rsbmi	r0, r0, #0
43e059f0:	e1a0f00e 	mov	pc, lr
43e059f4:	e92d5003 	push	{r0, r1, ip, lr}
43e059f8:	ebffff4d 	bl	43e05734 <_end+0x43b852a8>
43e059fc:	e8bd5006 	pop	{r1, r2, ip, lr}
43e05a00:	e0030290 	mul	r3, r0, r2
43e05a04:	e0411003 	sub	r1, r1, r3
43e05a08:	e1a0f00e 	mov	pc, lr
43e05a0c:	e92d5003 	push	{r0, r1, ip, lr}
43e05a10:	ebffff96 	bl	43e05870 <_end+0x43b853e4>
43e05a14:	e8bd5006 	pop	{r1, r2, ip, lr}
43e05a18:	e0030290 	mul	r3, r0, r2
43e05a1c:	e0411003 	sub	r1, r1, r3
43e05a20:	e1a0f00e 	mov	pc, lr
43e05a24:	e52de008 	str	lr, [sp, #-8]!
43e05a28:	ebffebdc 	bl	43e009a0 <_end+0x43b80514>
43e05a2c:	e3a00000 	mov	r0, #0
43e05a30:	e49df008 	ldr	pc, [sp], #8
43e05a34:	e2523020 	subs	r3, r2, #32
43e05a38:	e262c020 	rsb	ip, r2, #32
43e05a3c:	41a01211 	lslmi	r1, r1, r2
43e05a40:	51a01310 	lslpl	r1, r0, r3
43e05a44:	41811c30 	orrmi	r1, r1, r0, lsr ip
43e05a48:	e1a00210 	lsl	r0, r0, r2
43e05a4c:	e1a0f00e 	mov	pc, lr
